CCS PCH C Compiler, Version 5.008, 5967               04-dic-14 18:09

               Filename:   D:\IGNACIO\ProgramacionGitHub\MT325-TiempoReal\Sistema\Programa PIC\SistemaPIC18f4550\ComunicacionSerial\ComSerial.lst

               ROM used:   4892 bytes (15%)
                           Largest free fragment is 12288
               RAM used:   1271 (62%) at main() level
                           1327 (65%) worst case
               Stack used: 5 locations (2 in main + 3 for interrupts)
               Stack size: 31

*
0000:  GOTO   0B72
*
0008:  MOVWF  04
000A:  MOVFF  FD8,05
000E:  MOVFF  FE0,06
0012:  MOVLB  0
0014:  MOVFF  FE9,0C
0018:  MOVFF  FEA,07
001C:  MOVFF  FE1,08
0020:  MOVFF  FE2,09
0024:  MOVFF  FD9,0A
0028:  MOVFF  FDA,0B
002C:  MOVFF  FF3,12
0030:  MOVFF  FF4,13
0034:  MOVFF  FFA,14
0038:  MOVFF  00,0E
003C:  MOVFF  01,0F
0040:  MOVFF  02,10
0044:  MOVFF  03,11
0048:  BTFSS  FF2.5
004A:  GOTO   0054
004E:  BTFSC  FF2.2
0050:  GOTO   00A6
0054:  BTFSS  F9D.5
0056:  GOTO   0060
005A:  BTFSC  F9E.5
005C:  GOTO   0394
0060:  MOVFF  0E,00
0064:  MOVFF  0F,01
0068:  MOVFF  10,02
006C:  MOVFF  11,03
0070:  MOVFF  0C,FE9
0074:  MOVFF  07,FEA
0078:  BSF    07.7
007A:  MOVFF  08,FE1
007E:  MOVFF  09,FE2
0082:  MOVFF  0A,FD9
0086:  MOVFF  0B,FDA
008A:  MOVFF  12,FF3
008E:  MOVFF  13,FF4
0092:  MOVFF  14,FFA
0096:  MOVF   04,W
0098:  MOVFF  06,FE0
009C:  MOVFF  05,FD8
00A0:  RETFIE 0
.................... #include <18F4550.h> 
.................... //////// Standard Header file for the PIC18F4550 device //////////////// 
.................... #device PIC18F4550 
*
03AA:  TBLRD*+
03AC:  MOVF   FF5,F
03AE:  BZ    03CA
03B0:  MOVFF  FF6,516
03B4:  MOVFF  FF7,517
03B8:  MOVF   FF5,W
03BA:  BTFSS  F9E.4
03BC:  BRA    03BA
03BE:  MOVWF  FAD
03C0:  MOVFF  516,FF6
03C4:  MOVFF  517,FF7
03C8:  BRA    03AA
03CA:  RETURN 0
03CC:  MOVLB  5
03CE:  CLRF   x1E
03D0:  CLRF   x1F
03D2:  MOVLW  01
03D4:  MOVWF  x20
03D6:  CLRF   FDA
03D8:  CLRF   FD9
03DA:  MOVLW  05
03DC:  MOVWF  x23
03DE:  MOVLW  16
03E0:  MOVWF  x22
03E2:  MOVLW  05
03E4:  MOVWF  FEA
03E6:  MOVLW  1A
03E8:  MOVWF  FE9
03EA:  MOVFF  523,FE2
03EE:  MOVFF  522,FE1
03F2:  MOVFF  520,521
03F6:  BCF    FD8.0
03F8:  MOVF   FE5,W
03FA:  MULWF  FEE
03FC:  MOVF   FF3,W
03FE:  ADDWFC x1E,F
0400:  MOVF   FF4,W
0402:  ADDWFC x1F,F
0404:  DECFSZ x21,F
0406:  BRA    03F6
0408:  MOVFF  51E,FDE
040C:  MOVFF  51F,51E
0410:  CLRF   x1F
0412:  BTFSC  FD8.0
0414:  INCF   x1F,F
0416:  INCF   x22,F
0418:  BTFSC  FD8.2
041A:  INCF   x23,F
041C:  INCF   x20,F
041E:  MOVF   x20,W
0420:  SUBLW  05
0422:  BNZ   03E2
0424:  MOVLB  0
0426:  RETURN 0
0428:  TBLRD*+
042A:  MOVFF  FF6,517
042E:  MOVFF  FF7,518
0432:  MOVF   FF5,W
0434:  BTFSS  F9E.4
0436:  BRA    0434
0438:  MOVWF  FAD
043A:  MOVFF  517,FF6
043E:  MOVFF  518,FF7
0442:  MOVLB  5
0444:  DECFSZ x16,F
0446:  BRA    044A
0448:  BRA    044E
044A:  MOVLB  0
044C:  BRA    0428
044E:  MOVLB  0
0450:  RETURN 0
0452:  BTFSC  FD8.1
0454:  BRA    045E
0456:  MOVLW  05
0458:  MOVWF  FEA
045A:  MOVLW  2A
045C:  MOVWF  FE9
045E:  CLRF   00
0460:  CLRF   01
0462:  CLRF   02
0464:  CLRF   03
0466:  MOVLB  5
0468:  CLRF   x2A
046A:  CLRF   x2B
046C:  CLRF   x2C
046E:  CLRF   x2D
0470:  MOVF   x29,W
0472:  IORWF  x28,W
0474:  IORWF  x27,W
0476:  IORWF  x26,W
0478:  BZ    04D2
047A:  MOVLW  20
047C:  MOVWF  x2E
047E:  BCF    FD8.0
0480:  RLCF   x22,F
0482:  RLCF   x23,F
0484:  RLCF   x24,F
0486:  RLCF   x25,F
0488:  RLCF   x2A,F
048A:  RLCF   x2B,F
048C:  RLCF   x2C,F
048E:  RLCF   x2D,F
0490:  MOVF   x29,W
0492:  SUBWF  x2D,W
0494:  BNZ   04A6
0496:  MOVF   x28,W
0498:  SUBWF  x2C,W
049A:  BNZ   04A6
049C:  MOVF   x27,W
049E:  SUBWF  x2B,W
04A0:  BNZ   04A6
04A2:  MOVF   x26,W
04A4:  SUBWF  x2A,W
04A6:  BNC   04C6
04A8:  MOVF   x26,W
04AA:  SUBWF  x2A,F
04AC:  MOVF   x27,W
04AE:  BTFSS  FD8.0
04B0:  INCFSZ x27,W
04B2:  SUBWF  x2B,F
04B4:  MOVF   x28,W
04B6:  BTFSS  FD8.0
04B8:  INCFSZ x28,W
04BA:  SUBWF  x2C,F
04BC:  MOVF   x29,W
04BE:  BTFSS  FD8.0
04C0:  INCFSZ x29,W
04C2:  SUBWF  x2D,F
04C4:  BSF    FD8.0
04C6:  RLCF   00,F
04C8:  RLCF   01,F
04CA:  RLCF   02,F
04CC:  RLCF   03,F
04CE:  DECFSZ x2E,F
04D0:  BRA    047E
04D2:  MOVFF  52A,FEF
04D6:  MOVFF  52B,FEC
04DA:  MOVFF  52C,FEC
04DE:  MOVFF  52D,FEC
04E2:  MOVLB  0
04E4:  RETURN 0
04E6:  MOVF   FE9,W
04E8:  MOVLB  5
04EA:  MOVWF  x1A
04EC:  MOVLW  3B
04EE:  MOVWF  x21
04F0:  MOVLW  9A
04F2:  MOVWF  x20
04F4:  MOVLW  CA
04F6:  MOVWF  x1F
04F8:  CLRF   x1E
04FA:  MOVLW  0A
04FC:  MOVWF  x1C
04FE:  BSF    FD8.1
0500:  MOVLW  05
0502:  MOVWF  FEA
0504:  MOVLW  16
0506:  MOVWF  FE9
0508:  MOVFF  519,525
050C:  MOVFF  518,524
0510:  MOVFF  517,523
0514:  MOVFF  516,522
0518:  MOVFF  521,529
051C:  MOVFF  520,528
0520:  MOVFF  51F,527
0524:  MOVFF  51E,526
0528:  MOVLB  0
052A:  RCALL  0452
052C:  MOVF   01,W
052E:  MOVF   00,F
0530:  BNZ   0558
0532:  MOVLB  5
0534:  MOVF   x1C,W
0536:  XORLW  01
0538:  BTFSS  FD8.2
053A:  BRA    0540
053C:  MOVLB  0
053E:  BRA    0558
0540:  MOVF   x1A,W
0542:  BZ    055C
0544:  ANDLW  0F
0546:  SUBWF  x1C,W
0548:  BZ    054C
054A:  BC    0568
054C:  BTFSC  x1A.7
054E:  BRA    0568
0550:  BTFSC  x1A.6
0552:  BRA    055C
0554:  MOVLW  20
0556:  BRA    055E
0558:  MOVLB  5
055A:  CLRF   x1A
055C:  MOVLW  30
055E:  ADDWF  00,F
0560:  MOVF   00,W
0562:  BTFSS  F9E.4
0564:  BRA    0562
0566:  MOVWF  FAD
0568:  BCF    FD8.1
056A:  MOVFF  521,525
056E:  MOVFF  520,524
0572:  MOVFF  51F,523
0576:  MOVFF  51E,522
057A:  CLRF   x29
057C:  CLRF   x28
057E:  CLRF   x27
0580:  MOVLW  0A
0582:  MOVWF  x26
0584:  MOVLB  0
0586:  RCALL  0452
0588:  MOVFF  03,521
058C:  MOVFF  02,520
0590:  MOVFF  01,51F
0594:  MOVFF  00,51E
0598:  MOVLB  5
059A:  DECFSZ x1C,F
059C:  BRA    04FE
059E:  MOVLB  0
05A0:  RETURN 0
*
05AE:  DATA 7C,20
05B0:  DATA 20,20
05B2:  DATA 50,72
05B4:  DATA 6F,63
05B6:  DATA 65,73
05B8:  DATA 6F,20
05BA:  DATA 20,7C
05BC:  DATA 20,20
05BE:  DATA 44,69
05C0:  DATA 72,2E
05C2:  DATA 49,6E
05C4:  DATA 69,20
05C6:  DATA 20,7C
05C8:  DATA 20,20
05CA:  DATA 44,69
05CC:  DATA 72,2E
05CE:  DATA 46,69
05D0:  DATA 6E,20
05D2:  DATA 20,7C
05D4:  DATA 20,20
05D6:  DATA 44,69
05D8:  DATA 72,2E
05DA:  DATA 41,63
05DC:  DATA 74,20
05DE:  DATA 20,7C
05E0:  DATA 2A,00
05E2:  DATA 7C,20
05E4:  DATA 20,20
05E6:  DATA 20,20
05E8:  DATA 20,25
05EA:  DATA 4C,75
05EC:  DATA 20,20
05EE:  DATA 20,20
05F0:  DATA 20,7C
05F2:  DATA 20,20
05F4:  DATA 20,25
05F6:  DATA 4C,75
05F8:  DATA 20,20
05FA:  DATA 20,20
05FC:  DATA 7C,20
05FE:  DATA 20,20
0600:  DATA 25,4C
0602:  DATA 75,20
0604:  DATA 20,20
0606:  DATA 20,7C
0608:  DATA 20,20
060A:  DATA 20,25
060C:  DATA 4C,75
060E:  DATA 20,20
0610:  DATA 20,20
0612:  DATA 7C,2A
0614:  DATA 00,00
0616:  DATA 43,6F
0618:  DATA 6E,65
061A:  DATA 63,74
061C:  DATA 61,64
061E:  DATA 6F,2E
0620:  DATA 2E,2E
0622:  DATA 2E,2E
0624:  DATA 2E,2E
0626:  DATA 2E,2E
0628:  DATA 2E,2E
062A:  DATA 2E,2E
062C:  DATA 2A,00
*
07A6:  MOVLB  5
07A8:  MOVF   x0D,W
07AA:  CLRF   01
07AC:  SUBWF  x0C,W
07AE:  BC    07B6
07B0:  MOVFF  50C,00
07B4:  BRA    07CE
07B6:  CLRF   00
07B8:  MOVLW  08
07BA:  MOVWF  x0E
07BC:  RLCF   x0C,F
07BE:  RLCF   00,F
07C0:  MOVF   x0D,W
07C2:  SUBWF  00,W
07C4:  BTFSC  FD8.0
07C6:  MOVWF  00
07C8:  RLCF   01,F
07CA:  DECFSZ x0E,F
07CC:  BRA    07BC
07CE:  MOVLB  0
07D0:  RETURN 0
07D2:  MOVLW  20
07D4:  MOVLB  5
07D6:  BTFSS  x07.4
07D8:  MOVLW  30
07DA:  MOVWF  x08
07DC:  MOVFF  506,00
07E0:  BTFSS  x06.7
07E2:  BRA    07F4
07E4:  COMF   00,F
07E6:  INCF   00,F
07E8:  MOVFF  00,506
07EC:  MOVLW  2D
07EE:  MOVWF  x08
07F0:  BSF    x07.7
07F2:  BSF    x07.0
07F4:  MOVF   01,W
07F6:  MOVFF  506,50C
07FA:  MOVLW  64
07FC:  MOVWF  x0D
07FE:  MOVLB  0
0800:  RCALL  07A6
0802:  MOVFF  00,506
0806:  MOVLW  30
0808:  ADDWF  01,W
080A:  MOVLB  5
080C:  MOVWF  x09
080E:  MOVFF  506,50C
0812:  MOVLW  0A
0814:  MOVWF  x0D
0816:  MOVLB  0
0818:  RCALL  07A6
081A:  MOVLW  30
081C:  ADDWF  00,W
081E:  MOVLB  5
0820:  MOVWF  x0B
0822:  MOVLW  30
0824:  ADDWF  01,W
0826:  MOVWF  x0A
0828:  MOVFF  508,00
082C:  MOVLW  30
082E:  SUBWF  x09,W
0830:  BZ    083A
0832:  BSF    x07.1
0834:  BTFSC  x07.7
0836:  BSF    x07.2
0838:  BRA    085E
083A:  MOVFF  508,509
083E:  MOVLW  20
0840:  MOVWF  x08
0842:  MOVLW  30
0844:  SUBWF  x0A,W
0846:  BZ    0850
0848:  BSF    x07.0
084A:  BTFSC  x07.7
084C:  BSF    x07.1
084E:  BRA    085E
0850:  BTFSS  FD8.2
0852:  BSF    x07.0
0854:  BNZ   085E
0856:  MOVFF  509,50A
085A:  MOVLW  20
085C:  MOVWF  x09
085E:  BTFSC  x07.2
0860:  BRA    086C
0862:  BTFSC  x07.1
0864:  BRA    0874
0866:  BTFSC  x07.0
0868:  BRA    087C
086A:  BRA    0884
086C:  MOVF   x08,W
086E:  BTFSS  F9E.4
0870:  BRA    086E
0872:  MOVWF  FAD
0874:  MOVF   x09,W
0876:  BTFSS  F9E.4
0878:  BRA    0876
087A:  MOVWF  FAD
087C:  MOVF   x0A,W
087E:  BTFSS  F9E.4
0880:  BRA    087E
0882:  MOVWF  FAD
0884:  MOVF   x0B,W
0886:  BTFSS  F9E.4
0888:  BRA    0886
088A:  MOVWF  FAD
088C:  MOVLB  0
088E:  RETURN 0
*
0952:  MOVFF  FF2,0D
0956:  BCF    FF2.7
0958:  ADDWF  FE8,W
095A:  CLRF   FF7
095C:  RLCF   FF7,F
095E:  ADDLW  77
0960:  MOVWF  FF6
0962:  MOVLW  09
0964:  ADDWFC FF7,F
0966:  TBLRD*-
0968:  MOVF   FF5,W
096A:  MOVWF  FFA
096C:  TBLRD*
096E:  MOVF   FF5,W
0970:  BTFSC  0D.7
0972:  BSF    FF2.7
0974:  MOVWF  FF9
0976:  DATA 18,40
0978:  DATA 58,40
097A:  DATA 4A,42
097C:  DATA 4A,42
097E:  DATA 4A,42
0980:  DATA 4A,42
0982:  DATA 4A,42
0984:  DATA 4A,42
0986:  DATA 4A,42
0988:  DATA 4A,42
098A:  DATA C8,40
098C:  DATA 4A,42
098E:  DATA 4A,42
0990:  DATA 72,41
0992:  DATA 4A,42
0994:  DATA 2A,42
0996:  DATA 4A,42
0998:  DATA 10,42
099A:  DATA 90,40
099C:  DATA 3E,42
099E:  DATA 4A,42
09A0:  DATA B0,40
09A2:  DATA 4D,2B
09A4:  DATA 30,2A
09A6:  DATA 00,00
09A8:  DATA 4D,2B
09AA:  DATA 31,2A
09AC:  DATA 00,00
09AE:  DATA 54,2B
09B0:  DATA 31,2A
09B2:  DATA 00,00
09B4:  DATA 52,2B
09B6:  DATA 31,2A
09B8:  DATA 00,00
09BA:  DATA 56,65
09BC:  DATA 72,73
09BE:  DATA 69,6F
09C0:  DATA 6E,20
09C2:  DATA 64,65
09C4:  DATA 6C,20
09C6:  DATA 53,69
09C8:  DATA 73,74
09CA:  DATA 65,6D
09CC:  DATA 61,3A
09CE:  DATA 20,56
09D0:  DATA 33,2E
09D2:  DATA 30,2A
09D4:  DATA 00,00
09D6:  DATA 45,73
09D8:  DATA 70,65
09DA:  DATA 72,61
09DC:  DATA 6E,64
09DE:  DATA 6F,20
09E0:  DATA 63,6F
09E2:  DATA 6E,65
09E4:  DATA 78,69
09E6:  DATA F3,6E
09E8:  DATA 2E,2E
09EA:  DATA 2A,00
....................  
.................... #list 
....................  
....................  
.................... #use delay(clock=10000000) 
.................... #use rs232(baud=9600, xmit=PIN_C6,rcv=PIN_C7,bits=8,parity=N) 
.................... #fuses HS,NOPROTECT,NOWDT,NOLVP,CPUDIV1,nomclr 
.................... #define Tiempo 200 
....................  
.................... #use FAST_IO(A)  
.................... #use FAST_IO(B) 
.................... #use FAST_IO(D) 
....................  
.................... #byte T0CON=0xFD5 
.................... #byte wreg=0xFE8 
.................... #byte TOSU=0xFFF 
.................... #byte TOSH=0xFFE 
.................... #byte TOSL=0xFFD 
....................  
.................... int np=0; 
.................... int colap[6]; 
.................... int m,m1; 
.................... int8 i,j; 
....................  
.................... int8 k1,k2,k3,k4,k5,k6,k7; 
.................... int8 l1,l2,l3,l4,l5,l6,l7; 
.................... int cont; 
.................... int1 contar=0; 
....................  
.................... char proceso; 
....................  
.................... int const lenbuff=10; 
.................... int valor2=0; 
.................... int32 val1,val2,val3,val4,val5; 
.................... //int16 quantum=65048; 
....................  
....................  
.................... int   xbuff=0x00; 
.................... char  cbuff[lenbuff]; 
.................... char  rcvchar=0x00; 
.................... char  comando; 
.................... int1  flagcmd=0; 
....................  
....................  
.................... struct pcb{ 
.................... int32 di; 
.................... int32 df;  
.................... int32 da; 
.................... int estado;  
.................... int wreg;  
.................... int status; 
.................... int bsr; 
.................... int id; 
.................... int prioridad; 
.................... } vpcb[10]; 
....................  
.................... // ======== VARIABLES DEL CALENDARIO ========== \\ 
.................... // estado_calendario = 0 -->   No ejecutar  
.................... // estado_calendario = 1 -->   Ejecutar  
.................... // estado_calendario = 2 -->   Vacio 
.................... // estado_calendario = 3 -->   Cargando 
....................  
.................... int8 calendario[1000]; 
.................... int16 reloj = 0; 
.................... int estado_calendario = 0; 
.................... int prioridad_act = 0; 
.................... //========================= 
.................... int16 mcm=0; 
.................... //============================= 
....................  
....................  
.................... void activar_timer() 
.................... { 
....................    // set_timer0(65478);    //    para 3ms 
....................    // set_timer0(65438);    //    para 5ms 
....................    // set_timer0(65380);    //    para 8ms 
....................    // set_timer0(65341);    //    para 10ms 
....................    // set_timer0(65282);    //    para 13ms 
....................    // set_timer0(65243);    //    para 15ms 
....................    // set_timer0(65185);    //    para 18ms 
....................    // set_timer0(65146);    //    para 20ms 
....................     set_timer0(65048);    //    para 25ms 
*
05A2:  MOVLW  FE
05A4:  MOVWF  FD7
05A6:  MOVLW  18
05A8:  MOVWF  FD6
....................    // set_timer0(64950);    //    para 30ms 
....................    //set_timer0(quantum); 
....................    enable_interrupts(INT_TIMER0); 
05AA:  BSF    FF2.5
05AC:  RETURN 0
.................... } 
....................  
.................... void desactivar_timer() 
.................... { 
....................    disable_interrupts(INT_TIMER0); 
*
00A2:  BCF    FF2.5
00A4:  RETURN 0
.................... } 
....................  
.................... void addcbuff(char c); 
.................... void mostrar_procesos(); 
.................... void descargar_proceso(int idp); 
.................... void Config_TMR0(); 
....................  
....................  
.................... #INT_TIMER0 
.................... void inter_quantum() 
00A6:  MOVLB  4
00A8:  CLRF   xF9
.................... {  int i=0; 
....................    desactivar_timer(); 
00AA:  MOVLB  0
00AC:  RCALL  00A2
....................    output_toggle(PIN_D6); 
00AE:  BTG    F8C.6
....................    // Guardando variables 
....................    vpcb[colap[0]].wreg=wreg; 
00B0:  MOVF   18,W
00B2:  MULLW  12
00B4:  MOVF   FF3,W
00B6:  MOVLB  5
00B8:  CLRF   x01
00BA:  MOVWF  x00
00BC:  MOVLW  0D
00BE:  ADDWF  x00,W
00C0:  MOVWF  01
00C2:  MOVLW  00
00C4:  ADDWFC x01,W
00C6:  MOVWF  03
00C8:  MOVF   01,W
00CA:  ADDLW  55
00CC:  MOVWF  FE9
00CE:  MOVLW  00
00D0:  ADDWFC 03,W
00D2:  MOVWF  FEA
00D4:  MOVFF  FE8,FEF
....................    vpcb[colap[0]].da=(int32)TOSL; 
00D8:  MOVF   18,W
00DA:  MULLW  12
00DC:  MOVF   FF3,W
00DE:  CLRF   x01
00E0:  MOVWF  x00
00E2:  MOVLW  08
00E4:  ADDWF  x00,W
00E6:  MOVWF  01
00E8:  MOVLW  00
00EA:  ADDWFC x01,W
00EC:  MOVWF  03
00EE:  MOVF   01,W
00F0:  ADDLW  55
00F2:  MOVWF  FE9
00F4:  MOVLW  00
00F6:  ADDWFC 03,W
00F8:  MOVWF  FEA
00FA:  CLRF   01
00FC:  CLRF   02
00FE:  CLRF   03
0100:  MOVFF  FFD,FEF
0104:  MOVFF  01,FEC
0108:  MOVFF  02,FEC
010C:  MOVFF  03,FEC
....................    vpcb[colap[0]].da=vpcb[colap[0]].da|((int32)TOSH<<8); 
0110:  MOVF   18,W
0112:  MULLW  12
0114:  MOVF   FF3,W
0116:  CLRF   x01
0118:  MOVWF  x00
011A:  MOVLW  08
011C:  ADDWF  x00,W
011E:  MOVWF  01
0120:  MOVLW  00
0122:  ADDWFC x01,W
0124:  MOVWF  03
0126:  MOVF   01,W
0128:  ADDLW  55
012A:  MOVWF  01
012C:  MOVLW  00
012E:  ADDWFC 03,F
0130:  MOVFF  01,500
0134:  MOVFF  03,501
0138:  MOVF   18,W
013A:  MULLW  12
013C:  MOVF   FF3,W
013E:  CLRF   x03
0140:  MOVWF  x02
0142:  MOVLW  08
0144:  ADDWF  x02,W
0146:  MOVWF  01
0148:  MOVLW  00
014A:  ADDWFC x03,W
014C:  MOVWF  03
014E:  MOVF   01,W
0150:  ADDLW  55
0152:  MOVWF  FE9
0154:  MOVLW  00
0156:  ADDWFC 03,W
0158:  MOVWF  FEA
015A:  MOVFF  FEF,502
015E:  MOVFF  FEC,503
0162:  MOVFF  FEC,504
0166:  MOVFF  FEC,505
016A:  CLRF   x08
016C:  CLRF   x07
016E:  CLRF   00
0170:  MOVF   00,W
0172:  IORWF  x02,W
0174:  MOVWF  00
0176:  MOVF   FFE,W
0178:  IORWF  x03,W
017A:  MOVWF  01
017C:  MOVF   x07,W
017E:  IORWF  x04,W
0180:  MOVWF  02
0182:  MOVF   x08,W
0184:  IORWF  x05,W
0186:  MOVFF  501,FEA
018A:  MOVFF  500,FE9
018E:  MOVFF  00,FEF
0192:  MOVFF  01,FEC
0196:  MOVFF  02,FEC
019A:  MOVWF  FEC
....................    vpcb[colap[0]].da=vpcb[colap[0]].da|((int32)TOSU<<16); 
019C:  MOVF   18,W
019E:  MULLW  12
01A0:  MOVF   FF3,W
01A2:  CLRF   x01
01A4:  MOVWF  x00
01A6:  MOVLW  08
01A8:  ADDWF  x00,W
01AA:  MOVWF  01
01AC:  MOVLW  00
01AE:  ADDWFC x01,W
01B0:  MOVWF  03
01B2:  MOVF   01,W
01B4:  ADDLW  55
01B6:  MOVWF  01
01B8:  MOVLW  00
01BA:  ADDWFC 03,F
01BC:  MOVFF  01,500
01C0:  MOVFF  03,501
01C4:  MOVF   18,W
01C6:  MULLW  12
01C8:  MOVF   FF3,W
01CA:  CLRF   x03
01CC:  MOVWF  x02
01CE:  MOVLW  08
01D0:  ADDWF  x02,W
01D2:  MOVWF  01
01D4:  MOVLW  00
01D6:  ADDWFC x03,W
01D8:  MOVWF  03
01DA:  MOVF   01,W
01DC:  ADDLW  55
01DE:  MOVWF  FE9
01E0:  MOVLW  00
01E2:  ADDWFC 03,W
01E4:  MOVWF  FEA
01E6:  MOVFF  FEF,502
01EA:  MOVFF  FEC,503
01EE:  MOVFF  FEC,504
01F2:  MOVFF  FEC,505
01F6:  CLRF   x07
01F8:  CLRF   00
01FA:  CLRF   01
01FC:  MOVF   00,W
01FE:  IORWF  x02,W
0200:  MOVWF  00
0202:  MOVF   01,W
0204:  IORWF  x03,W
0206:  MOVWF  01
0208:  MOVF   FFF,W
020A:  IORWF  x04,W
020C:  MOVWF  02
020E:  MOVF   x07,W
0210:  IORWF  x05,W
0212:  MOVFF  501,FEA
0216:  MOVFF  500,FE9
021A:  MOVFF  00,FEF
021E:  MOVFF  01,FEC
0222:  MOVFF  02,FEC
0226:  MOVWF  FEC
....................     
....................    // corriendo proceso 
....................    if(np>1) 
0228:  MOVF   17,W
022A:  SUBLW  01
022C:  BTFSC  FD8.0
022E:  BRA    032A
....................    {    
....................       prioridad_act = 0; 
0230:  MOVLB  4
0232:  CLRF   xF4
....................       for (i=1; i<np; i++ ){ 
0234:  MOVLW  01
0236:  MOVWF  xF9
0238:  MOVF   17,W
023A:  SUBWF  xF9,W
023C:  BC    02B8
....................          if (vpcb[colap[i]].prioridad > prioridad_act){ 
023E:  CLRF   03
0240:  MOVF   xF9,W
0242:  ADDLW  18
0244:  MOVWF  FE9
0246:  MOVLW  00
0248:  ADDWFC 03,W
024A:  MOVWF  FEA
024C:  MOVF   FEF,W
024E:  MULLW  12
0250:  MOVF   FF3,W
0252:  MOVLB  5
0254:  CLRF   x01
0256:  MOVWF  x00
0258:  MOVLW  11
025A:  ADDWF  x00,W
025C:  MOVWF  01
025E:  MOVLW  00
0260:  ADDWFC x01,W
0262:  MOVWF  03
0264:  MOVF   01,W
0266:  ADDLW  55
0268:  MOVWF  FE9
026A:  MOVLW  00
026C:  ADDWFC 03,W
026E:  MOVWF  FEA
0270:  MOVF   FEF,W
0272:  MOVLB  4
0274:  SUBWF  xF4,W
0276:  BC    02B4
....................             m1 = i; 
0278:  MOVFF  4F9,1F
....................             prioridad_act = vpcb[colap[i]].prioridad; 
027C:  CLRF   03
027E:  MOVF   xF9,W
0280:  ADDLW  18
0282:  MOVWF  FE9
0284:  MOVLW  00
0286:  ADDWFC 03,W
0288:  MOVWF  FEA
028A:  MOVF   FEF,W
028C:  MULLW  12
028E:  MOVF   FF3,W
0290:  MOVLB  5
0292:  CLRF   x01
0294:  MOVWF  x00
0296:  MOVLW  11
0298:  ADDWF  x00,W
029A:  MOVWF  01
029C:  MOVLW  00
029E:  ADDWFC x01,W
02A0:  MOVWF  03
02A2:  MOVF   01,W
02A4:  ADDLW  55
02A6:  MOVWF  FE9
02A8:  MOVLW  00
02AA:  ADDWFC 03,W
02AC:  MOVWF  FEA
02AE:  MOVFF  FEF,4F4
02B2:  MOVLB  4
....................          } 
02B4:  INCF   xF9,F
02B6:  BRA    0238
....................       } 
....................        
....................       m=colap[0]; 
02B8:  MOVFF  18,1E
....................       colap[0] = colap[m1]; 
02BC:  CLRF   03
02BE:  MOVF   1F,W
02C0:  ADDLW  18
02C2:  MOVWF  FE9
02C4:  MOVLW  00
02C6:  ADDWFC 03,W
02C8:  MOVWF  FEA
02CA:  MOVFF  FEF,18
....................       for(i=m1;i<np-1;i++) 
02CE:  MOVFF  1F,4F9
02D2:  MOVLW  01
02D4:  SUBWF  17,W
02D6:  SUBWF  xF9,W
02D8:  BC    0314
....................       { 
....................          colap[i]=colap[i+1]; 
02DA:  CLRF   03
02DC:  MOVF   xF9,W
02DE:  ADDLW  18
02E0:  MOVWF  01
02E2:  MOVLW  00
02E4:  ADDWFC 03,F
02E6:  MOVFF  03,501
02EA:  MOVLW  01
02EC:  MOVLB  4
02EE:  ADDWF  xF9,W
02F0:  CLRF   03
02F2:  ADDLW  18
02F4:  MOVWF  FE9
02F6:  MOVLW  00
02F8:  ADDWFC 03,W
02FA:  MOVWF  FEA
02FC:  MOVFF  FEF,502
0300:  MOVLB  5
0302:  MOVFF  501,FEA
0306:  MOVFF  01,FE9
030A:  MOVFF  502,FEF
030E:  MOVLB  4
0310:  INCF   xF9,F
0312:  BRA    02D2
....................       } 
....................       colap[np-1]=m; 
0314:  MOVLW  01
0316:  SUBWF  17,W
0318:  CLRF   03
031A:  ADDLW  18
031C:  MOVWF  FE9
031E:  MOVLW  00
0320:  ADDWFC 03,W
0322:  MOVWF  FEA
0324:  MOVFF  1E,FEF
0328:  MOVLB  5
....................    } 
....................     
....................    /*if(contar == 1){ 
....................       cont++; 
....................    }*/ 
....................     
....................    if(estado_calendario == 1){ 
032A:  MOVLB  4
032C:  DECFSZ xF3,W
032E:  BRA    0348
....................       reloj++; 
0330:  INCF   xF1,F
0332:  BTFSC  FD8.2
0334:  INCF   xF2,F
....................       if(reloj >= mcm){ 
0336:  MOVF   xF6,W
0338:  SUBWF  xF2,W
033A:  BNC   0348
033C:  BNZ   0344
033E:  MOVF   xF5,W
0340:  SUBWF  xF1,W
0342:  BNC   0348
....................          reloj = 0; 
0344:  CLRF   xF2
0346:  CLRF   xF1
....................       } 
....................    } 
....................     
....................    //==== PC=S0_Init() ======= 
....................    TOSL=00; 
0348:  CLRF   FFD
....................    TOSH=40; 
034A:  MOVLW  28
034C:  MOVWF  FFE
....................    TOSU=00; 
034E:  CLRF   FFF
0350:  BCF    FF2.2
0352:  MOVLB  0
0354:  GOTO   0060
.................... }  
....................  
.................... void inte_Init()  // interrupcion de puerto serial 
.................... { 
....................    enable_interrupts(GLOBAL); 
*
0B2A:  MOVLW  C0
0B2C:  IORWF  FF2,F
....................    enable_interrupts(INT_RDA); 
0B2E:  BSF    F9D.5
0B30:  GOTO   0B4C (RETURN)
.................... } 
....................  
....................  
.................... #INT_RDA 
.................... void serial_isr() 
.................... { 
....................    //printf("Recibido");     // se envia por Serial una palabra para verificar interrupcion 
....................    rcvchar = 0x00; 
*
0394:  CLRF   53
....................    rcvchar = getc();    // se recibe el caracter enviado por la computadora 
0396:  BTFSS  F9E.5
0398:  BRA    0396
039A:  MOVFF  FAE,53
....................    addcbuff(rcvchar);   // guarda el caracter en un buffer 
039E:  MOVFF  53,4F9
03A2:  BRA    0358
03A4:  BCF    F9E.5
03A6:  GOTO   0060
.................... } 
....................  
.................... void addcbuff(char c)    
.................... { 
....................    switch(c) 
*
0358:  MOVLB  4
035A:  MOVF   xF9,W
035C:  XORLW  2A
035E:  MOVLB  0
0360:  BZ    0364
0362:  BRA    037C
....................    { 
....................       case '*':                  // en caso de recibir *, levanta el flag para saber que se termino de enviar un comando. 
....................          cbuff[xbuff++] = c; 
0364:  MOVF   48,W
0366:  INCF   48,F
0368:  CLRF   03
036A:  ADDLW  49
036C:  MOVWF  FE9
036E:  MOVLW  00
0370:  ADDWFC 03,W
0372:  MOVWF  FEA
0374:  MOVFF  4F9,FEF
....................          flagcmd = 1; 
0378:  BSF    31.1
....................       break; 
037A:  BRA    0390
....................       default: 
....................          cbuff[xbuff++] = c; 
037C:  MOVF   48,W
037E:  INCF   48,F
0380:  CLRF   03
0382:  ADDLW  49
0384:  MOVWF  FE9
0386:  MOVLW  00
0388:  ADDWFC 03,W
038A:  MOVWF  FEA
038C:  MOVFF  4F9,FEF
....................    } 
0390:  GOTO   03A4 (RETURN)
.................... } 
....................  
.................... void inicbuff(void)           // inicializa el buffer, limpiandolo 
.................... { 
....................    int i; 
....................    for (i=0; i<lenbuff;i++)       
*
062E:  MOVLB  5
0630:  CLRF   x12
0632:  MOVF   x12,W
0634:  SUBLW  09
0636:  BNC   064C
....................    { 
....................       cbuff[i] = 0x00; 
0638:  CLRF   03
063A:  MOVF   x12,W
063C:  ADDLW  49
063E:  MOVWF  FE9
0640:  MOVLW  00
0642:  ADDWFC 03,W
0644:  MOVWF  FEA
0646:  CLRF   FEF
0648:  INCF   x12,F
064A:  BRA    0632
....................    } 
....................    xbuff=0x00; 
064C:  CLRF   48
064E:  MOVLB  0
0650:  GOTO   0712 (RETURN)
.................... } 
....................  
....................  
.................... void procesa_cmd(void){             // procesa el ultimo comando guardado, un comando esta comprendido entre $ hasta *  
0654:  MOVLB  5
0656:  CLRF   x07
....................   
....................    int i, j=0;                       
....................    char salida[lenbuff];            // Argumento de comando (si lo tiene) 
....................    disable_interrupts(int_rda);      
0658:  BCF    F9D.5
....................    flagcmd=0;                       // Desactivo flag de comando pendiente. 
065A:  BCF    31.1
....................    for (i=0;i<xbuff;i++) 
065C:  CLRF   x06
065E:  MOVF   48,W
0660:  SUBWF  x06,W
0662:  BC    070E
....................    { 
....................       if (cbuff[i] == '$'){         // verifica que tenga '$' 
0664:  CLRF   03
0666:  MOVF   x06,W
0668:  ADDLW  49
066A:  MOVWF  FE9
066C:  MOVLW  00
066E:  ADDWFC 03,W
0670:  MOVWF  FEA
0672:  MOVF   FEF,W
0674:  SUBLW  24
0676:  BNZ   070A
....................          while((cbuff[i] != '*') & (i<xbuff))   // hasta que encuentre * 
0678:  CLRF   03
067A:  MOVF   x06,W
067C:  ADDLW  49
067E:  MOVWF  FE9
0680:  MOVLW  00
0682:  ADDWFC 03,W
0684:  MOVWF  FEA
0686:  MOVF   FEF,W
0688:  SUBLW  2A
068A:  BNZ   0690
068C:  MOVLW  00
068E:  BRA    0692
0690:  MOVLW  01
0692:  MOVWF  x12
0694:  MOVF   48,W
0696:  SUBWF  x06,W
0698:  BNC   069E
069A:  MOVLW  00
069C:  BRA    06A0
069E:  MOVLW  01
06A0:  ANDWF  x12,W
06A2:  BZ    06DC
....................          { 
....................             salida[j++]=cbuff[i++]; 
06A4:  MOVF   x07,W
06A6:  INCF   x07,F
06A8:  CLRF   03
06AA:  ADDLW  08
06AC:  MOVWF  01
06AE:  MOVLW  05
06B0:  ADDWFC 03,F
06B2:  MOVFF  01,512
06B6:  MOVFF  03,513
06BA:  MOVF   x06,W
06BC:  INCF   x06,F
06BE:  CLRF   03
06C0:  ADDLW  49
06C2:  MOVWF  FE9
06C4:  MOVLW  00
06C6:  ADDWFC 03,W
06C8:  MOVWF  FEA
06CA:  MOVFF  FEF,514
06CE:  MOVFF  513,FEA
06D2:  MOVFF  01,FE9
06D6:  MOVFF  514,FEF
06DA:  BRA    0678
....................          } 
....................          comando = salida[1]; 
06DC:  MOVFF  509,54
....................          valor2 = salida[2] -'0'; 
06E0:  MOVLW  30
06E2:  SUBWF  x0A,W
06E4:  MOVWF  33
....................          val1 = salida[3]-'0'; 
06E6:  MOVLW  30
06E8:  SUBWF  x0B,W
06EA:  MOVWF  34
06EC:  CLRF   35
06EE:  CLRF   36
06F0:  CLRF   37
....................          val2 = salida[4]-'0'; 
06F2:  MOVLW  30
06F4:  SUBWF  x0C,W
06F6:  MOVWF  38
06F8:  CLRF   39
06FA:  CLRF   3A
06FC:  CLRF   3B
....................          val3 = salida[5]-'0'; 
06FE:  MOVLW  30
0700:  SUBWF  x0D,W
0702:  MOVWF  3C
0704:  CLRF   3D
0706:  CLRF   3E
0708:  CLRF   3F
....................           
....................       } 
070A:  INCF   x06,F
070C:  BRA    065E
....................    } 
....................    inicbuff();                            // Borro buffer. 
070E:  MOVLB  0
0710:  BRA    062E
....................    for(i=0;i<lenbuff;i++)                 // Bucle que pone a 0 todos los 
0712:  MOVLB  5
0714:  CLRF   x06
0716:  MOVF   x06,W
0718:  SUBLW  09
071A:  BNC   0730
....................    { 
....................       salida[i]=0x00;                     // caracteres en el argumento 
071C:  CLRF   03
071E:  MOVF   x06,W
0720:  ADDLW  08
0722:  MOVWF  FE9
0724:  MOVLW  05
0726:  ADDWFC 03,W
0728:  MOVWF  FEA
072A:  CLRF   FEF
072C:  INCF   x06,F
072E:  BRA    0716
....................    } 
....................    enable_interrupts(int_rda);             
0730:  BSF    F9D.5
0732:  MOVLB  0
0734:  GOTO   4008 (RETURN)
.................... } 
....................  
....................  
.................... //***************************************************************************** 
.................... //PROGRAMA 1: Parpadeo Led D0 
....................  
.................... #ORG 0x1000, 0x1044 
.................... void Parpadear_D0() 
.................... { 
....................    while(TRUE) 
....................    { 
....................       output_toggle(PIN_D0); 
*
1000:  BTG    F8C.0
....................       for (k1=1;k1<150;k1++){for (l1=1;l1<200;l1++){}} 
1002:  MOVLW  01
1004:  MOVWF  22
1006:  MOVF   22,W
1008:  SUBLW  95
100A:  BNC   101E
100C:  MOVLW  01
100E:  MOVWF  29
1010:  MOVF   29,W
1012:  SUBLW  C7
1014:  BNC   101A
1016:  INCF   29,F
1018:  BRA    1010
101A:  INCF   22,F
101C:  BRA    1006
....................       output_toggle(PIN_D0); 
101E:  BTG    F8C.0
....................       for (k1=1;k1<150;k1++){for (l1=1;l1<200;l1++){}} 
1020:  MOVLW  01
1022:  MOVWF  22
1024:  MOVF   22,W
1026:  SUBLW  95
1028:  BNC   103C
102A:  MOVLW  01
102C:  MOVWF  29
102E:  MOVF   29,W
1030:  SUBLW  C7
1032:  BNC   1038
1034:  INCF   29,F
1036:  BRA    102E
1038:  INCF   22,F
103A:  BRA    1024
103C:  BRA    1000
....................    } 
103E:  RETURN 0
.................... } 
....................  
.................... //***************************************************************************** 
.................... //PROGRAMA 2: Parpadeo Led D1 
....................  
.................... #ORG 0x1046, 0x1090        
.................... void Parpadear_D1() 
.................... { 
....................    while(TRUE) 
....................    { 
....................       output_toggle(PIN_D1); 
*
1046:  BTG    F8C.1
....................       for (k2=1;k2<50;k2++){for (l2=1;l2<200;l2++){}} 
1048:  MOVLW  01
104A:  MOVWF  23
104C:  MOVF   23,W
104E:  SUBLW  31
1050:  BNC   1064
1052:  MOVLW  01
1054:  MOVWF  2A
1056:  MOVF   2A,W
1058:  SUBLW  C7
105A:  BNC   1060
105C:  INCF   2A,F
105E:  BRA    1056
1060:  INCF   23,F
1062:  BRA    104C
....................       output_toggle(PIN_D1); 
1064:  BTG    F8C.1
....................       for (k2=1;k2<50;k2++){for (l2=1;l2<200;l2++){}} 
1066:  MOVLW  01
1068:  MOVWF  23
106A:  MOVF   23,W
106C:  SUBLW  31
106E:  BNC   1082
1070:  MOVLW  01
1072:  MOVWF  2A
1074:  MOVF   2A,W
1076:  SUBLW  C7
1078:  BNC   107E
107A:  INCF   2A,F
107C:  BRA    1074
107E:  INCF   23,F
1080:  BRA    106A
1082:  BRA    1046
....................    } 
1084:  RETURN 0
.................... } 
....................  
.................... //***************************************************************************** 
.................... //PROGRAMA 3: Parpadeo Led D2 
....................  
.................... #ORG 0x1092, 0x10D6 
.................... void Parpadear_D2() 
.................... { 
....................    while(TRUE) 
....................    { 
....................       output_toggle(PIN_D2); 
*
1092:  BTG    F8C.2
....................       for (k3=1;k3<100;k3++){for (l3=1;l3<200;l3++){}} 
1094:  MOVLW  01
1096:  MOVWF  24
1098:  MOVF   24,W
109A:  SUBLW  63
109C:  BNC   10B0
109E:  MOVLW  01
10A0:  MOVWF  2B
10A2:  MOVF   2B,W
10A4:  SUBLW  C7
10A6:  BNC   10AC
10A8:  INCF   2B,F
10AA:  BRA    10A2
10AC:  INCF   24,F
10AE:  BRA    1098
....................       output_toggle(PIN_D2); 
10B0:  BTG    F8C.2
....................       for (k3=1;k3<100;k3++){for (l3=1;l3<200;l3++){}} 
10B2:  MOVLW  01
10B4:  MOVWF  24
10B6:  MOVF   24,W
10B8:  SUBLW  63
10BA:  BNC   10CE
10BC:  MOVLW  01
10BE:  MOVWF  2B
10C0:  MOVF   2B,W
10C2:  SUBLW  C7
10C4:  BNC   10CA
10C6:  INCF   2B,F
10C8:  BRA    10C0
10CA:  INCF   24,F
10CC:  BRA    10B6
10CE:  BRA    1092
....................    } 
10D0:  RETURN 0
.................... } 
....................  
.................... //***************************************************************************** 
.................... //PROGRAMA 4: Parpadeo Led D3 - FINITO 
....................  
.................... #ORG 0x10D8, 0x11D8 
.................... void Parpadear_D3() 
.................... { 
....................    //cont = 0; 
....................    //contar = 1; 
....................    while(TRUE) 
....................    { 
....................       output_toggle(PIN_D3); 
*
10D8:  BTG    F8C.3
....................       for (k4=1;k4<200;k4++){for (l4=1;l4<100;l4++){}} 
10DA:  MOVLW  01
10DC:  MOVWF  25
10DE:  MOVF   25,W
10E0:  SUBLW  C7
10E2:  BNC   10F6
10E4:  MOVLW  01
10E6:  MOVWF  2C
10E8:  MOVF   2C,W
10EA:  SUBLW  63
10EC:  BNC   10F2
10EE:  INCF   2C,F
10F0:  BRA    10E8
10F2:  INCF   25,F
10F4:  BRA    10DE
....................       output_toggle(PIN_D3); 
10F6:  BTG    F8C.3
....................       for (k4=1;k4<200;k4++){for (l4=1;l4<100;l4++){}} 
10F8:  MOVLW  01
10FA:  MOVWF  25
10FC:  MOVF   25,W
10FE:  SUBLW  C7
1100:  BNC   1114
1102:  MOVLW  01
1104:  MOVWF  2C
1106:  MOVF   2C,W
1108:  SUBLW  63
110A:  BNC   1110
110C:  INCF   2C,F
110E:  BRA    1106
1110:  INCF   25,F
1112:  BRA    10FC
....................       comando = 'D'; 
1114:  MOVLW  44
1116:  MOVWF  54
....................       valor2 = 4; 
1118:  MOVLW  04
111A:  MOVWF  33
111C:  BRA    10D8
....................       //printf("T=%i*", cont); 
....................       //contar = 0; 
....................    } 
111E:  RETURN 0
.................... } 
....................  
.................... //***************************************************************************** 
.................... //PROGRAMA 5: Parpadeo Led D4 - FINITO 
....................  
.................... #ORG 0x11DA, 0x12DA 
.................... void Parpadear_D4() 
.................... { 
....................    //cont = 0; 
....................    //contar = 1; 
....................    while(TRUE) 
....................    { 
....................       output_toggle(PIN_D4); 
*
11DA:  BTG    F8C.4
....................       for (k5=1;k5<150;++k5){for (l5=1;l5<100;++l5){}} 
11DC:  MOVLW  01
11DE:  MOVWF  26
11E0:  MOVF   26,W
11E2:  SUBLW  95
11E4:  BNC   11F8
11E6:  MOVLW  01
11E8:  MOVWF  2D
11EA:  MOVF   2D,W
11EC:  SUBLW  63
11EE:  BNC   11F4
11F0:  INCF   2D,F
11F2:  BRA    11EA
11F4:  INCF   26,F
11F6:  BRA    11E0
....................       output_toggle(PIN_D4); 
11F8:  BTG    F8C.4
....................       for (k5=1;k5<150;++k5){for (l5=1;l5<100;++l5){}} 
11FA:  MOVLW  01
11FC:  MOVWF  26
11FE:  MOVF   26,W
1200:  SUBLW  95
1202:  BNC   1216
1204:  MOVLW  01
1206:  MOVWF  2D
1208:  MOVF   2D,W
120A:  SUBLW  63
120C:  BNC   1212
120E:  INCF   2D,F
1210:  BRA    1208
1212:  INCF   26,F
1214:  BRA    11FE
....................       comando = 'D'; 
1216:  MOVLW  44
1218:  MOVWF  54
....................       valor2 = 5; 
121A:  MOVLW  05
121C:  MOVWF  33
121E:  BRA    11DA
....................       //printf("T=%i*", cont); 
....................       //contar = 0; 
....................    } 
1220:  RETURN 0
.................... } 
....................  
....................  
.................... //***************************************************************************** 
.................... //PROGRAMA 6: Parpadeo Led B0 - FINITO 
....................  
.................... #ORG 0x12DC, 0x13DC 
.................... void Parpadear_B0() 
.................... { 
....................    //cont = 0; 
....................    //contar = 1; 
....................    while(TRUE) 
....................    { 
....................       output_toggle(PIN_B0); 
*
12DC:  BTG    F8A.0
....................       for (k6=1;k6<100;k6++){for (l6=1;l6<100;l6++){}} 
12DE:  MOVLW  01
12E0:  MOVWF  27
12E2:  MOVF   27,W
12E4:  SUBLW  63
12E6:  BNC   12FA
12E8:  MOVLW  01
12EA:  MOVWF  2E
12EC:  MOVF   2E,W
12EE:  SUBLW  63
12F0:  BNC   12F6
12F2:  INCF   2E,F
12F4:  BRA    12EC
12F6:  INCF   27,F
12F8:  BRA    12E2
....................       output_toggle(PIN_B0); 
12FA:  BTG    F8A.0
....................       for (k6=1;k6<100;k6++){for (l6=1;l6<100;l6++){}} 
12FC:  MOVLW  01
12FE:  MOVWF  27
1300:  MOVF   27,W
1302:  SUBLW  63
1304:  BNC   1318
1306:  MOVLW  01
1308:  MOVWF  2E
130A:  MOVF   2E,W
130C:  SUBLW  63
130E:  BNC   1314
1310:  INCF   2E,F
1312:  BRA    130A
1314:  INCF   27,F
1316:  BRA    1300
....................       comando = 'D'; 
1318:  MOVLW  44
131A:  MOVWF  54
....................       valor2 = 6; 
131C:  MOVLW  06
131E:  MOVWF  33
1320:  BRA    12DC
....................       //printf("T=%i*", cont); 
....................       //contar = 0; 
....................    } 
1322:  RETURN 0
.................... } 
....................  
.................... //***************************************************************************** 
.................... //PROGRAMA 7: Parpadeo Led B1 - FINITO 
.................... #ORG 0x13DE, 0x14DE 
.................... void Parpadear_B1() 
.................... { 
....................    //cont = 0; 
....................    //contar = 1; 
....................    while(TRUE) 
....................    { 
....................       output_toggle(PIN_B1); 
*
13DE:  BTG    F8A.1
....................       for (k7=1;k7<50;k7++){for (l7=1;l7<100;++l7){}} 
13E0:  MOVLW  01
13E2:  MOVWF  28
13E4:  MOVF   28,W
13E6:  SUBLW  31
13E8:  BNC   13FC
13EA:  MOVLW  01
13EC:  MOVWF  2F
13EE:  MOVF   2F,W
13F0:  SUBLW  63
13F2:  BNC   13F8
13F4:  INCF   2F,F
13F6:  BRA    13EE
13F8:  INCF   28,F
13FA:  BRA    13E4
....................       output_toggle(PIN_B1); 
13FC:  BTG    F8A.1
....................       for (k7=1;k7<50;k7++){for (l7=1;l7<100;++l7){}} 
13FE:  MOVLW  01
1400:  MOVWF  28
1402:  MOVF   28,W
1404:  SUBLW  31
1406:  BNC   141A
1408:  MOVLW  01
140A:  MOVWF  2F
140C:  MOVF   2F,W
140E:  SUBLW  63
1410:  BNC   1416
1412:  INCF   2F,F
1414:  BRA    140C
1416:  INCF   28,F
1418:  BRA    1402
....................       comando = 'D'; 
141A:  MOVLW  44
141C:  MOVWF  54
....................       valor2 = 7; 
141E:  MOVLW  07
1420:  MOVWF  33
1422:  BRA    13DE
....................       //printf("T=%i*", cont); 
....................       //contar = 0; 
....................    } 
1424:  RETURN 0
.................... } 
....................  
....................  
.................... //***************************************************************************** 
.................... // PROGRAMA 8: Mostrar Procesos 
....................  
.................... #ORG 0x2502, 0x2850 
.................... void task_manager(){ 
....................    while(TRUE){ 
....................       desactivar_timer(); 
*
2502:  CALL   00A2
....................       int m; 
....................          int32 mproceso, mdirini, mdirfin, mdiract; 
....................          printf("|   Proceso  |  Dir.Ini  |  Dir.Fin  |  Dir.Act  |*"); 
2506:  MOVLW  AE
2508:  MOVWF  FF6
250A:  MOVLW  05
250C:  MOVWF  FF7
250E:  CALL   03AA
....................          for(m=0;m<np;m++) 
2512:  MOVLB  5
2514:  CLRF   x05
2516:  MOVF   17,W
2518:  SUBWF  x05,W
251A:  BTFSC  FD8.0
251C:  BRA    26E8
....................          { 
....................             mproceso = colap[m]; 
251E:  CLRF   03
2520:  MOVF   x05,W
2522:  ADDLW  18
2524:  MOVWF  FE9
2526:  MOVLW  00
2528:  ADDWFC 03,W
252A:  MOVWF  FEA
252C:  CLRF   x09
252E:  CLRF   x08
2530:  CLRF   x07
2532:  MOVFF  FEF,506
....................             mdirini = vpcb[mproceso].di; 
2536:  MOVFF  509,519
253A:  MOVFF  508,518
253E:  MOVFF  507,517
2542:  MOVFF  506,516
2546:  CLRF   x1D
2548:  CLRF   x1C
254A:  CLRF   x1B
254C:  MOVLW  12
254E:  MOVWF  x1A
2550:  MOVLB  0
2552:  CALL   03CC
2556:  MOVLW  55
2558:  MOVLB  5
255A:  ADDWF  00,W
255C:  MOVWF  FE9
255E:  MOVLW  00
2560:  ADDWFC 01,W
2562:  MOVWF  FEA
2564:  MOVFF  FEF,50A
2568:  MOVFF  FEC,50B
256C:  MOVFF  FEC,50C
2570:  MOVFF  FEC,50D
....................             mdirfin = vpcb[mproceso].df; 
2574:  MOVFF  509,519
2578:  MOVFF  508,518
257C:  MOVFF  507,517
2580:  MOVFF  506,516
2584:  CLRF   x1D
2586:  CLRF   x1C
2588:  CLRF   x1B
258A:  MOVLW  12
258C:  MOVWF  x1A
258E:  MOVLB  0
2590:  CALL   03CC
2594:  MOVFF  01,517
2598:  MOVLW  04
259A:  MOVLB  5
259C:  ADDWF  00,W
259E:  MOVWF  01
25A0:  MOVLW  00
25A2:  ADDWFC x17,W
25A4:  MOVWF  03
25A6:  MOVF   01,W
25A8:  ADDLW  55
25AA:  MOVWF  FE9
25AC:  MOVLW  00
25AE:  ADDWFC 03,W
25B0:  MOVWF  FEA
25B2:  MOVFF  FEF,50E
25B6:  MOVFF  FEC,50F
25BA:  MOVFF  FEC,510
25BE:  MOVFF  FEC,511
....................             mdiract = vpcb[mproceso].da; 
25C2:  MOVFF  509,519
25C6:  MOVFF  508,518
25CA:  MOVFF  507,517
25CE:  MOVFF  506,516
25D2:  CLRF   x1D
25D4:  CLRF   x1C
25D6:  CLRF   x1B
25D8:  MOVLW  12
25DA:  MOVWF  x1A
25DC:  MOVLB  0
25DE:  CALL   03CC
25E2:  MOVFF  01,517
25E6:  MOVLW  08
25E8:  MOVLB  5
25EA:  ADDWF  00,W
25EC:  MOVWF  01
25EE:  MOVLW  00
25F0:  ADDWFC x17,W
25F2:  MOVWF  03
25F4:  MOVF   01,W
25F6:  ADDLW  55
25F8:  MOVWF  FE9
25FA:  MOVLW  00
25FC:  ADDWFC 03,W
25FE:  MOVWF  FEA
2600:  MOVFF  FEF,512
2604:  MOVFF  FEC,513
2608:  MOVFF  FEC,514
260C:  MOVFF  FEC,515
....................             mproceso++; 
2610:  MOVLW  01
2612:  ADDWF  x06,F
2614:  BTFSC  FD8.0
2616:  INCF   x07,F
2618:  BTFSC  FD8.2
261A:  INCF   x08,F
261C:  BTFSC  FD8.2
261E:  INCF   x09,F
....................             printf("|      %Lu     |   %Lu    |   %Lu    |   %Lu    |*",mproceso,mdirini,mdirfin,mdiract); 
2620:  MOVLW  E2
2622:  MOVWF  FF6
2624:  MOVLW  05
2626:  MOVWF  FF7
2628:  MOVLW  07
262A:  MOVWF  x16
262C:  MOVLB  0
262E:  CALL   0428
2632:  MOVLW  41
2634:  MOVWF  FE9
2636:  MOVFF  509,519
263A:  MOVFF  508,518
263E:  MOVFF  507,517
2642:  MOVFF  506,516
2646:  CALL   04E6
264A:  MOVLW  EC
264C:  MOVWF  FF6
264E:  MOVLW  05
2650:  MOVWF  FF7
2652:  MOVLW  09
2654:  MOVLB  5
2656:  MOVWF  x16
2658:  MOVLB  0
265A:  CALL   0428
265E:  MOVLW  41
2660:  MOVWF  FE9
2662:  MOVFF  50D,519
2666:  MOVFF  50C,518
266A:  MOVFF  50B,517
266E:  MOVFF  50A,516
2672:  CALL   04E6
2676:  MOVLW  F8
2678:  MOVWF  FF6
267A:  MOVLW  05
267C:  MOVWF  FF7
267E:  MOVLW  08
2680:  MOVLB  5
2682:  MOVWF  x16
2684:  MOVLB  0
2686:  CALL   0428
268A:  MOVLW  41
268C:  MOVWF  FE9
268E:  MOVFF  511,519
2692:  MOVFF  510,518
2696:  MOVFF  50F,517
269A:  MOVFF  50E,516
269E:  CALL   04E6
26A2:  MOVLW  03
26A4:  MOVWF  FF6
26A6:  MOVLW  06
26A8:  MOVWF  FF7
26AA:  MOVLW  08
26AC:  MOVLB  5
26AE:  MOVWF  x16
26B0:  MOVLB  0
26B2:  CALL   0428
26B6:  MOVLW  41
26B8:  MOVWF  FE9
26BA:  MOVFF  515,519
26BE:  MOVFF  514,518
26C2:  MOVFF  513,517
26C6:  MOVFF  512,516
26CA:  CALL   04E6
26CE:  MOVLW  0E
26D0:  MOVWF  FF6
26D2:  MOVLW  06
26D4:  MOVWF  FF7
26D6:  MOVLW  06
26D8:  MOVLB  5
26DA:  MOVWF  x16
26DC:  MOVLB  0
26DE:  CALL   0428
26E2:  MOVLB  5
26E4:  INCF   x05,F
26E6:  BRA    2516
....................          } 
....................          //printf("*"); 
....................       comando='D'; 
26E8:  MOVLW  44
26EA:  MOVWF  54
....................       valor2=8; 
26EC:  MOVLW  08
26EE:  MOVWF  33
....................       activar_timer(); 
26F0:  MOVLB  0
26F2:  CALL   05A2
26F6:  BRA    2502
....................    } 
26F8:  RETURN 0
....................     
.................... } 
....................  
....................  
.................... void limpiar_calendario (int mcm){ 
....................    for (int i=0; i<mcm; i++){ 
*
092E:  MOVLB  5
0930:  CLRF   x07
0932:  MOVF   x06,W
0934:  SUBWF  x07,W
0936:  BC    094C
....................       Calendario[i] = 0; 
0938:  MOVLW  09
093A:  ADDWF  x07,W
093C:  MOVWF  FE9
093E:  MOVLW  01
0940:  MOVWF  FEA
0942:  BTFSC  FD8.0
0944:  INCF   FEA,F
0946:  CLRF   FEF
0948:  INCF   x07,F
094A:  BRA    0932
....................    } 
094C:  MOVLB  0
094E:  GOTO   414C (RETURN)
.................... } 
....................  
.................... void cargar_proceso(int idp, int prioridad) 
.................... { 
....................     colap[np]=idp-1; 
*
0738:  CLRF   03
073A:  MOVF   17,W
073C:  ADDLW  18
073E:  MOVWF  FE9
0740:  MOVLW  00
0742:  ADDWFC 03,W
0744:  MOVWF  FEA
0746:  MOVLW  01
0748:  MOVLB  5
074A:  SUBWF  x07,W
074C:  MOVWF  FEF
....................     vpcb[idp-1].estado=1; 
074E:  MOVLW  01
0750:  SUBWF  x07,W
0752:  MULLW  12
0754:  MOVF   FF3,W
0756:  CLRF   x0A
0758:  MOVWF  x09
075A:  MOVLW  0C
075C:  ADDWF  x09,W
075E:  MOVWF  01
0760:  MOVLW  00
0762:  ADDWFC x0A,W
0764:  MOVWF  03
0766:  MOVF   01,W
0768:  ADDLW  55
076A:  MOVWF  FE9
076C:  MOVLW  00
076E:  ADDWFC 03,W
0770:  MOVWF  FEA
0772:  MOVLW  01
0774:  MOVWF  FEF
....................     vpcb[idp-1].prioridad =prioridad; 
0776:  SUBWF  x07,W
0778:  MULLW  12
077A:  MOVF   FF3,W
077C:  CLRF   x0A
077E:  MOVWF  x09
0780:  MOVLW  11
0782:  ADDWF  x09,W
0784:  MOVWF  01
0786:  MOVLW  00
0788:  ADDWFC x0A,W
078A:  MOVWF  03
078C:  MOVF   01,W
078E:  ADDLW  55
0790:  MOVWF  FE9
0792:  MOVLW  00
0794:  ADDWFC 03,W
0796:  MOVWF  FEA
0798:  MOVFF  508,FEF
....................     proceso=10; 
079C:  MOVLW  0A
079E:  MOVWF  32
....................     np++; 
07A0:  INCF   17,F
07A2:  MOVLB  0
07A4:  RETURN 0
.................... } 
....................  
.................... void descargar_proceso(int idp) 
.................... { 
....................    int s,d,f; 
....................    for(s=0;s<np;s++) 
*
0890:  MOVLB  5
0892:  CLRF   x07
0894:  MOVF   17,W
0896:  SUBWF  x07,W
0898:  BC    08BC
....................       {if(colap[s]==idp-1) 
089A:  CLRF   03
089C:  MOVF   x07,W
089E:  ADDLW  18
08A0:  MOVWF  FE9
08A2:  MOVLW  00
08A4:  ADDWFC 03,W
08A6:  MOVWF  FEA
08A8:  MOVFF  FEF,50A
08AC:  MOVLW  01
08AE:  SUBWF  x06,W
08B0:  SUBWF  x0A,W
08B2:  BNZ   08B8
....................          {d=s;} 
08B4:  MOVFF  507,508
08B8:  INCF   x07,F
08BA:  BRA    0894
....................       } 
....................    f=np-1; 
08BC:  MOVLW  01
08BE:  SUBWF  17,W
08C0:  MOVWF  x09
....................    for(s=d;s<f;s++) 
08C2:  MOVFF  508,507
08C6:  MOVF   x09,W
08C8:  SUBWF  x07,W
08CA:  BC    0900
....................       {colap[s]=colap[s+1]; 
08CC:  CLRF   03
08CE:  MOVF   x07,W
08D0:  ADDLW  18
08D2:  MOVWF  01
08D4:  MOVLW  00
08D6:  ADDWFC 03,F
08D8:  MOVFF  03,50B
08DC:  MOVLW  01
08DE:  ADDWF  x07,W
08E0:  CLRF   03
08E2:  ADDLW  18
08E4:  MOVWF  FE9
08E6:  MOVLW  00
08E8:  ADDWFC 03,W
08EA:  MOVWF  FEA
08EC:  MOVFF  FEF,50C
08F0:  MOVFF  50B,FEA
08F4:  MOVFF  01,FE9
08F8:  MOVFF  50C,FEF
08FC:  INCF   x07,F
08FE:  BRA    08C6
....................       } 
....................    np--;    
0900:  DECF   17,F
....................    vpcb[idp-1].estado=0; 
0902:  MOVLW  01
0904:  SUBWF  x06,W
0906:  MULLW  12
0908:  MOVF   FF3,W
090A:  CLRF   x0B
090C:  MOVWF  x0A
090E:  MOVLW  0C
0910:  ADDWF  x0A,W
0912:  MOVWF  01
0914:  MOVLW  00
0916:  ADDWFC x0B,W
0918:  MOVWF  03
091A:  MOVF   01,W
091C:  ADDLW  55
091E:  MOVWF  FE9
0920:  MOVLW  00
0922:  ADDWFC 03,W
0924:  MOVWF  FEA
0926:  CLRF   FEF
....................    proceso=0; 
0928:  CLRF   32
092A:  MOVLB  0
092C:  RETURN 0
.................... } 
....................  
.................... void Port_Init() 
.................... { 
....................    set_tris_b(0x00); 
*
09EC:  MOVLW  00
09EE:  MOVWF  F93
....................    set_tris_d(0x00); 
09F0:  MOVWF  F95
....................    set_tris_a(0x00); 
09F2:  MOVWF  F92
....................    output_b(0x00); 
09F4:  CLRF   F8A
....................    output_d(0x00); 
09F6:  CLRF   F8C
....................    output_a(0x00); 
09F8:  CLRF   F89
09FA:  GOTO   0B48 (RETURN)
.................... } 
....................  
.................... void Config_TMR0() 
.................... { 
....................    T0CON=0b10000111; 
*
0B34:  MOVLW  87
0B36:  MOVWF  FD5
0B38:  GOTO   0B4E (RETURN)
....................  
.................... } 
....................  
.................... void Procesos_Init() 
.................... { 
....................    //Programa 1 
....................    vpcb[0].di=0x1000; 
*
09FE:  CLRF   58
0A00:  CLRF   57
0A02:  MOVLW  10
0A04:  MOVWF  56
0A06:  CLRF   55
....................    vpcb[0].da=0x1000;    
0A08:  CLRF   x60
0A0A:  CLRF   5F
0A0C:  MOVWF  5E
0A0E:  CLRF   5D
....................    vpcb[0].df=0x1044; 
0A10:  CLRF   5C
0A12:  CLRF   5B
0A14:  MOVWF  5A
0A16:  MOVLW  44
0A18:  MOVWF  59
....................    //Programa 2 
....................    vpcb[1].di=0x1046; 
0A1A:  CLRF   x6A
0A1C:  CLRF   x69
0A1E:  MOVLW  10
0A20:  MOVWF  x68
0A22:  MOVLW  46
0A24:  MOVWF  x67
....................    vpcb[1].da=0x1046; 
0A26:  CLRF   x72
0A28:  CLRF   x71
0A2A:  MOVLW  10
0A2C:  MOVWF  x70
0A2E:  MOVLW  46
0A30:  MOVWF  x6F
....................    vpcb[1].df=0x1090; 
0A32:  CLRF   x6E
0A34:  CLRF   x6D
0A36:  MOVLW  10
0A38:  MOVWF  x6C
0A3A:  MOVLW  90
0A3C:  MOVWF  x6B
....................    //Programa 3 
....................    vpcb[2].di=0x1092; 
0A3E:  CLRF   x7C
0A40:  CLRF   x7B
0A42:  MOVLW  10
0A44:  MOVWF  x7A
0A46:  MOVLW  92
0A48:  MOVWF  x79
....................    vpcb[2].da=0x1092; 
0A4A:  CLRF   x84
0A4C:  CLRF   x83
0A4E:  MOVLW  10
0A50:  MOVWF  x82
0A52:  MOVLW  92
0A54:  MOVWF  x81
....................    vpcb[2].df=0x10D6; 
0A56:  CLRF   x80
0A58:  CLRF   x7F
0A5A:  MOVLW  10
0A5C:  MOVWF  x7E
0A5E:  MOVLW  D6
0A60:  MOVWF  x7D
....................    //Programa 4 
....................    vpcb[3].di=0x10D8; 
0A62:  CLRF   x8E
0A64:  CLRF   x8D
0A66:  MOVLW  10
0A68:  MOVWF  x8C
0A6A:  MOVLW  D8
0A6C:  MOVWF  x8B
....................    vpcb[3].da=0x10D8; 
0A6E:  CLRF   x96
0A70:  CLRF   x95
0A72:  MOVLW  10
0A74:  MOVWF  x94
0A76:  MOVLW  D8
0A78:  MOVWF  x93
....................    vpcb[3].df=0x11D8; 
0A7A:  CLRF   x92
0A7C:  CLRF   x91
0A7E:  MOVLW  11
0A80:  MOVWF  x90
0A82:  MOVLW  D8
0A84:  MOVWF  x8F
....................    //Programa 5 
....................    vpcb[4].di=0x11DA; 
0A86:  CLRF   xA0
0A88:  CLRF   x9F
0A8A:  MOVLW  11
0A8C:  MOVWF  x9E
0A8E:  MOVLW  DA
0A90:  MOVWF  x9D
....................    vpcb[4].da=0x11DA; 
0A92:  CLRF   xA8
0A94:  CLRF   xA7
0A96:  MOVLW  11
0A98:  MOVWF  xA6
0A9A:  MOVLW  DA
0A9C:  MOVWF  xA5
....................    vpcb[4].df=0x12DA; 
0A9E:  CLRF   xA4
0AA0:  CLRF   xA3
0AA2:  MOVLW  12
0AA4:  MOVWF  xA2
0AA6:  MOVLW  DA
0AA8:  MOVWF  xA1
....................    //Programa 6 
....................    vpcb[5].di=0x12DC; 
0AAA:  CLRF   xB2
0AAC:  CLRF   xB1
0AAE:  MOVLW  12
0AB0:  MOVWF  xB0
0AB2:  MOVLW  DC
0AB4:  MOVWF  xAF
....................    vpcb[5].da=0x12DC; 
0AB6:  CLRF   xBA
0AB8:  CLRF   xB9
0ABA:  MOVLW  12
0ABC:  MOVWF  xB8
0ABE:  MOVLW  DC
0AC0:  MOVWF  xB7
....................    vpcb[5].df=0x13DC; 
0AC2:  CLRF   xB6
0AC4:  CLRF   xB5
0AC6:  MOVLW  13
0AC8:  MOVWF  xB4
0ACA:  MOVLW  DC
0ACC:  MOVWF  xB3
....................    //Programa 7 
....................    vpcb[6].di=0x13DE; 
0ACE:  CLRF   xC4
0AD0:  CLRF   xC3
0AD2:  MOVLW  13
0AD4:  MOVWF  xC2
0AD6:  MOVLW  DE
0AD8:  MOVWF  xC1
....................    vpcb[6].da=0x13DE; 
0ADA:  CLRF   xCC
0ADC:  CLRF   xCB
0ADE:  MOVLW  13
0AE0:  MOVWF  xCA
0AE2:  MOVLW  DE
0AE4:  MOVWF  xC9
....................    vpcb[6].df=0x14DE; 
0AE6:  CLRF   xC8
0AE8:  CLRF   xC7
0AEA:  MOVLW  14
0AEC:  MOVWF  xC6
0AEE:  MOVLW  DE
0AF0:  MOVWF  xC5
....................    //Programa 8 
....................    vpcb[7].di=0x2502; 
0AF2:  CLRF   xD6
0AF4:  CLRF   xD5
0AF6:  MOVLW  25
0AF8:  MOVWF  xD4
0AFA:  MOVLW  02
0AFC:  MOVWF  xD3
....................    vpcb[7].da=0x2502; 
0AFE:  CLRF   xDE
0B00:  CLRF   xDD
0B02:  MOVLW  25
0B04:  MOVWF  xDC
0B06:  MOVLW  02
0B08:  MOVWF  xDB
....................    vpcb[7].df=0x2850; 
0B0A:  CLRF   xDA
0B0C:  CLRF   xD9
0B0E:  MOVLW  28
0B10:  MOVWF  xD8
0B12:  MOVLW  50
0B14:  MOVWF  xD7
....................     
....................    vpcb[0].estado=0; 
0B16:  CLRF   x61
....................    vpcb[1].estado=0; 
0B18:  CLRF   x73
....................    vpcb[2].estado=0; 
0B1A:  CLRF   x85
....................    vpcb[3].estado=0; 
0B1C:  CLRF   x97
....................    vpcb[4].estado=0; 
0B1E:  CLRF   xA9
....................    vpcb[5].estado=0; 
0B20:  CLRF   xBB
....................    vpcb[6].estado=0; 
0B22:  CLRF   xCD
....................    vpcb[7].estado=0; 
0B24:  CLRF   xDF
0B26:  GOTO   0B4A (RETURN)
....................  
....................     
.................... } 
....................  
.................... void MCU_Init() 
.................... { 
....................    printf("Conectado.............*"); 
*
0B3C:  MOVLW  16
0B3E:  MOVWF  FF6
0B40:  MOVLW  06
0B42:  MOVWF  FF7
0B44:  RCALL  03AA
....................    Port_Init(); 
0B46:  BRA    09EC
....................    Procesos_Init(); 
0B48:  BRA    09FE
....................    inte_Init(); 
0B4A:  BRA    0B2A
....................    Config_TMR0(); 
0B4C:  BRA    0B34
....................    setup_spi(FALSE); 
0B4E:  CLRF   FC6
....................    setup_psp(PSP_DISABLED); 
0B50:  BCF    F96.4
....................    setup_comparator(NC_NC_NC_NC); 
0B52:  MOVLW  07
0B54:  MOVWF  FB4
0B56:  MOVF   F92,W
0B58:  MOVWF  F92
0B5A:  MOVLW  07
0B5C:  MOVWF  00
0B5E:  DECFSZ 00,F
0B60:  BRA    0B5E
0B62:  BRA    0B64
0B64:  NOP   
0B66:  MOVF   FB4,W
0B68:  BCF    FA1.6
....................    setup_vref(FALSE); 
0B6A:  CLRF   FB5
....................    port_b_pullups(FALSE); 
0B6C:  BSF    FF1.7
0B6E:  GOTO   0BBC (RETURN)
.................... } 
....................  
....................  
.................... #ORG 0x4000, 0x4FFE 
.................... void Inicio_SO() 
.................... { 
....................    while (TRUE) 
....................    {        
....................       if(flagcmd){ 
*
4000:  BTFSS  31.1
4002:  BRA    4008
....................          procesa_cmd(); 
4004:  GOTO   0654
....................       } 
....................       switch(comando) 
4008:  MOVLW  43
400A:  SUBWF  54,W
400C:  ADDLW  EA
400E:  BTFSC  FD8.0
4010:  BRA    424A
4012:  ADDLW  16
4014:  GOTO   0952
....................       { 
....................          case 'C': {    // Cargar proceso especifico 
....................                      if (valor2<9) cargar_proceso(valor2 , 1); 
4018:  MOVF   33,W
401A:  SUBLW  08
401C:  BNC   402E
401E:  MOVFF  33,507
4022:  MOVLW  01
4024:  MOVLB  5
4026:  MOVWF  x08
4028:  MOVLB  0
402A:  CALL   0738
....................                      printf("C+%i*", valor2); 
402E:  MOVLW  43
4030:  BTFSS  F9E.4
4032:  BRA    4030
4034:  MOVWF  FAD
4036:  MOVLW  2B
4038:  BTFSS  F9E.4
403A:  BRA    4038
403C:  MOVWF  FAD
403E:  MOVFF  33,506
4042:  MOVLW  18
4044:  MOVLB  5
4046:  MOVWF  x07
4048:  MOVLB  0
404A:  CALL   07D2
404E:  MOVLW  2A
4050:  BTFSS  F9E.4
4052:  BRA    4050
4054:  MOVWF  FAD
....................                      break; 
4056:  BRA    424A
....................                    } 
....................          case 'D': {    // Descargar proceso especifico 
....................                      if (valor2<9) descargar_proceso(valor2); 
4058:  MOVF   33,W
405A:  SUBLW  08
405C:  BNC   4066
405E:  MOVFF  33,506
4062:  CALL   0890
....................                      printf("D+%i*", valor2); 
4066:  MOVLW  44
4068:  BTFSS  F9E.4
406A:  BRA    4068
406C:  MOVWF  FAD
406E:  MOVLW  2B
4070:  BTFSS  F9E.4
4072:  BRA    4070
4074:  MOVWF  FAD
4076:  MOVFF  33,506
407A:  MOVLW  18
407C:  MOVLB  5
407E:  MOVWF  x07
4080:  MOVLB  0
4082:  CALL   07D2
4086:  MOVLW  2A
4088:  BTFSS  F9E.4
408A:  BRA    4088
408C:  MOVWF  FAD
....................                      break; 
408E:  BRA    424A
....................                    } 
....................          case 'U': {    // Cargar procesos 1-6 
....................                      for (m=1;m<4;m++) {cargar_proceso(m , 1);} 
4090:  MOVLW  01
4092:  MOVWF  1E
4094:  MOVF   1E,W
4096:  SUBLW  03
4098:  BNC   40AE
409A:  MOVFF  1E,507
409E:  MOVLW  01
40A0:  MOVLB  5
40A2:  MOVWF  x08
40A4:  MOVLB  0
40A6:  CALL   0738
40AA:  INCF   1E,F
40AC:  BRA    4094
....................                      break; 
40AE:  BRA    424A
....................                    } 
....................          case 'X': {    // Descargar procesos 1-6 
....................                      for (m=1;m<4;m++) {descargar_proceso(m);} 
40B0:  MOVLW  01
40B2:  MOVWF  1E
40B4:  MOVF   1E,W
40B6:  SUBLW  03
40B8:  BNC   40C6
40BA:  MOVFF  1E,506
40BE:  CALL   0890
40C2:  INCF   1E,F
40C4:  BRA    40B4
....................                      break; 
40C6:  BRA    424A
....................                    } 
....................          case 'M': {    // iniciar/detener carga del calendario 
....................                      if (valor2 == 0) { 
40C8:  MOVF   33,F
40CA:  BNZ   415A
....................                         estado_calendario = 3; 
40CC:  MOVLW  03
40CE:  MOVLB  4
40D0:  MOVWF  xF3
....................                         mcm = val3+(val2*10)+(val1*100); 
40D2:  MOVFF  3B,519
40D6:  MOVFF  3A,518
40DA:  MOVFF  39,517
40DE:  MOVFF  38,516
40E2:  MOVLB  5
40E4:  CLRF   x1D
40E6:  CLRF   x1C
40E8:  CLRF   x1B
40EA:  MOVLW  0A
40EC:  MOVWF  x1A
40EE:  MOVLB  0
40F0:  CALL   03CC
40F4:  MOVF   00,W
40F6:  ADDWF  3C,W
40F8:  MOVLB  5
40FA:  MOVWF  x06
40FC:  MOVF   01,W
40FE:  ADDWFC 3D,W
4100:  MOVWF  x07
4102:  MOVF   02,W
4104:  ADDWFC 3E,W
4106:  MOVWF  x08
4108:  MOVF   03,W
410A:  ADDWFC 3F,W
410C:  MOVWF  x09
410E:  MOVFF  37,519
4112:  MOVFF  36,518
4116:  MOVFF  35,517
411A:  MOVFF  34,516
411E:  CLRF   x1D
4120:  CLRF   x1C
4122:  CLRF   x1B
4124:  MOVLW  64
4126:  MOVWF  x1A
4128:  MOVLB  0
412A:  CALL   03CC
412E:  MOVF   00,W
4130:  MOVLB  5
4132:  ADDWF  x06,W
4134:  MOVLB  4
4136:  MOVWF  xF5
4138:  MOVF   01,W
413A:  MOVLB  5
413C:  ADDWFC x07,W
413E:  MOVLB  4
4140:  MOVWF  xF6
....................                         limpiar_calendario (mcm); 
4142:  MOVFF  4F5,506
4146:  MOVLB  0
4148:  GOTO   092E
....................                         printf("M+0*"); 
414C:  MOVLW  A2
414E:  MOVWF  FF6
4150:  MOVLW  09
4152:  MOVWF  FF7
4154:  CALL   03AA
....................                      } else if ( valor2 == 1 ){ 
4158:  BRA    4170
415A:  DECFSZ 33,W
415C:  BRA    4170
....................                         estado_calendario = 0; 
415E:  MOVLB  4
4160:  CLRF   xF3
....................                         printf("M+1*"); 
4162:  MOVLW  A8
4164:  MOVWF  FF6
4166:  MOVLW  09
4168:  MOVWF  FF7
416A:  MOVLB  0
416C:  CALL   03AA
....................                      } 
....................                      break; 
4170:  BRA    424A
....................                    } 
....................          case 'P': {    // Guardar un proceso en el calendario 
....................                      int pos; 
....................                      pos = val3+(val2*10)+(val1*100); 
4172:  MOVFF  3B,519
4176:  MOVFF  3A,518
417A:  MOVFF  39,517
417E:  MOVFF  38,516
4182:  MOVLB  5
4184:  CLRF   x1D
4186:  CLRF   x1C
4188:  CLRF   x1B
418A:  MOVLW  0A
418C:  MOVWF  x1A
418E:  MOVLB  0
4190:  CALL   03CC
4194:  MOVF   00,W
4196:  ADDWF  3C,W
4198:  MOVLB  5
419A:  MOVWF  x06
419C:  MOVF   01,W
419E:  ADDWFC 3D,W
41A0:  MOVWF  x07
41A2:  MOVF   02,W
41A4:  ADDWFC 3E,W
41A6:  MOVWF  x08
41A8:  MOVF   03,W
41AA:  ADDWFC 3F,W
41AC:  MOVWF  x09
41AE:  MOVFF  37,519
41B2:  MOVFF  36,518
41B6:  MOVFF  35,517
41BA:  MOVFF  34,516
41BE:  CLRF   x1D
41C0:  CLRF   x1C
41C2:  CLRF   x1B
41C4:  MOVLW  64
41C6:  MOVWF  x1A
41C8:  MOVLB  0
41CA:  CALL   03CC
41CE:  MOVF   00,W
41D0:  MOVLB  5
41D2:  ADDWF  x06,W
41D4:  MOVWF  x05
....................                      Calendario[pos] = valor2; 
41D6:  MOVLW  09
41D8:  ADDWF  x05,W
41DA:  MOVWF  FE9
41DC:  MOVLW  01
41DE:  MOVWF  FEA
41E0:  BTFSC  FD8.0
41E2:  INCF   FEA,F
41E4:  MOVFF  33,FEF
....................                      printf("P+%i*",valor2); 
41E8:  MOVLW  50
41EA:  BTFSS  F9E.4
41EC:  BRA    41EA
41EE:  MOVWF  FAD
41F0:  MOVLW  2B
41F2:  BTFSS  F9E.4
41F4:  BRA    41F2
41F6:  MOVWF  FAD
41F8:  MOVFF  33,506
41FC:  MOVLW  18
41FE:  MOVWF  x07
4200:  MOVLB  0
4202:  CALL   07D2
4206:  MOVLW  2A
4208:  BTFSS  F9E.4
420A:  BRA    4208
420C:  MOVWF  FAD
....................                      break; 
420E:  BRA    424A
....................                    } 
....................          case 'T': {    // Ejecutar calendario 
....................                      estado_calendario = 1; 
4210:  MOVLW  01
4212:  MOVLB  4
4214:  MOVWF  xF3
....................                      reloj = 0; 
4216:  CLRF   xF2
4218:  CLRF   xF1
....................                      printf("T+1*"); 
421A:  MOVLW  AE
421C:  MOVWF  FF6
421E:  MOVLW  09
4220:  MOVWF  FF7
4222:  MOVLB  0
4224:  CALL   03AA
....................                      break; 
4228:  BRA    424A
....................                    } 
....................          case 'R': {    // Detener Calendario 
....................                      estado_calendario = 0; 
422A:  MOVLB  4
422C:  CLRF   xF3
....................                      printf("R+1*"); 
422E:  MOVLW  B4
4230:  MOVWF  FF6
4232:  MOVLW  09
4234:  MOVWF  FF7
4236:  MOVLB  0
4238:  CALL   03AA
....................                      break; 
423C:  BRA    424A
....................                    } 
....................          case 'V': {    // Version 
....................                      printf("Version del Sistema: V3.0*"); 
423E:  MOVLW  BA
4240:  MOVWF  FF6
4242:  MOVLW  09
4244:  MOVWF  FF7
4246:  CALL   03AA
....................                      break; 
....................                    } 
....................       } 
....................       comando='-'; 
424A:  MOVLW  2D
424C:  MOVWF  54
....................       valor2=100; 
424E:  MOVLW  64
4250:  MOVWF  33
....................       if (estado_calendario == 1){ 
4252:  MOVLB  4
4254:  DECFSZ xF3,W
4256:  BRA    428A
....................          if (Calendario[reloj] != 0){ 
4258:  MOVLW  09
425A:  ADDWF  xF1,W
425C:  MOVWF  FE9
425E:  MOVLW  01
4260:  ADDWFC xF2,W
4262:  MOVWF  FEA
4264:  MOVF   FEF,F
4266:  BZ    428A
....................             cargar_proceso(Calendario[reloj] , 2); 
4268:  MOVLW  09
426A:  ADDWF  xF1,W
426C:  MOVWF  FE9
426E:  MOVLW  01
4270:  ADDWFC xF2,W
4272:  MOVWF  FEA
4274:  MOVFF  FEF,506
4278:  MOVFF  506,507
427C:  MOVLW  02
427E:  MOVLB  5
4280:  MOVWF  x08
4282:  MOVLB  0
4284:  CALL   0738
4288:  MOVLB  4
....................          } 
....................       } 
....................       if(np>0) 
428A:  MOVF   17,F
428C:  BZ    4380
....................       { 
....................          if(vpcb[colap[0]].estado==1) 
428E:  MOVF   18,W
4290:  MULLW  12
4292:  MOVF   FF3,W
4294:  MOVLB  5
4296:  CLRF   x07
4298:  MOVWF  x06
429A:  MOVLW  0C
429C:  ADDWF  x06,W
429E:  MOVWF  01
42A0:  MOVLW  00
42A2:  ADDWFC x07,W
42A4:  MOVWF  03
42A6:  MOVF   01,W
42A8:  ADDLW  55
42AA:  MOVWF  FE9
42AC:  MOVLW  00
42AE:  ADDWFC 03,W
42B0:  MOVWF  FEA
42B2:  DECFSZ FEF,W
42B4:  BRA    4316
....................             {activar_timer(); 
42B6:  MOVLB  0
42B8:  CALL   05A2
....................              vpcb[colap[0]].estado=2; 
42BC:  MOVF   18,W
42BE:  MULLW  12
42C0:  MOVF   FF3,W
42C2:  MOVLB  5
42C4:  CLRF   x07
42C6:  MOVWF  x06
42C8:  MOVLW  0C
42CA:  ADDWF  x06,W
42CC:  MOVWF  01
42CE:  MOVLW  00
42D0:  ADDWFC x07,W
42D2:  MOVWF  03
42D4:  MOVF   01,W
42D6:  ADDLW  55
42D8:  MOVWF  FE9
42DA:  MOVLW  00
42DC:  ADDWFC 03,W
42DE:  MOVWF  FEA
42E0:  MOVLW  02
42E2:  MOVWF  FEF
....................              goto_address(vpcb[colap[0]].di); 
42E4:  MOVF   18,W
42E6:  MULLW  12
42E8:  MOVF   FF3,W
42EA:  CLRF   x07
42EC:  MOVWF  x06
42EE:  MOVLW  55
42F0:  ADDWF  x06,W
42F2:  MOVWF  FE9
42F4:  MOVLW  00
42F6:  ADDWFC x07,W
42F8:  MOVWF  FEA
42FA:  MOVFF  FEF,508
42FE:  MOVFF  FEC,509
4302:  MOVFF  FEC,50A
4306:  MOVFF  FEC,50B
430A:  MOVFF  509,FFA
430E:  MOVFF  508,FE8
4312:  MOVWF  FF9
....................             } 
4314:  BRA    4380
....................          else 
....................             {wreg=vpcb[colap[0]].wreg; 
4316:  MOVF   18,W
4318:  MULLW  12
431A:  MOVF   FF3,W
431C:  CLRF   x07
431E:  MOVWF  x06
4320:  MOVLW  0D
4322:  ADDWF  x06,W
4324:  MOVWF  01
4326:  MOVLW  00
4328:  ADDWFC x07,W
432A:  MOVWF  03
432C:  MOVF   01,W
432E:  ADDLW  55
4330:  MOVWF  FE9
4332:  MOVLW  00
4334:  ADDWFC 03,W
4336:  MOVWF  FEA
4338:  MOVFF  FEF,FE8
....................              activar_timer(); 
433C:  MOVLB  0
433E:  CALL   05A2
....................              goto_address(vpcb[colap[0]].da); 
4342:  MOVF   18,W
4344:  MULLW  12
4346:  MOVF   FF3,W
4348:  MOVLB  5
434A:  CLRF   x07
434C:  MOVWF  x06
434E:  MOVLW  08
4350:  ADDWF  x06,W
4352:  MOVWF  01
4354:  MOVLW  00
4356:  ADDWFC x07,W
4358:  MOVWF  03
435A:  MOVF   01,W
435C:  ADDLW  55
435E:  MOVWF  FE9
4360:  MOVLW  00
4362:  ADDWFC 03,W
4364:  MOVWF  FEA
4366:  MOVFF  FEF,506
436A:  MOVFF  FEC,507
436E:  MOVFF  FEC,508
4372:  MOVFF  FEC,509
4376:  MOVFF  507,FFA
437A:  MOVFF  506,FE8
437E:  MOVWF  FF9
....................             } 
....................       } 
4380:  MOVLB  0
4382:  BRA    4000
....................    } 
4384:  RETURN 0
.................... } 
....................  
.................... void main(void) 
*
0B72:  CLRF   FF8
0B74:  BCF    FD0.7
0B76:  BSF    07.7
0B78:  BCF    FB8.3
0B7A:  MOVLW  40
0B7C:  MOVWF  FAF
0B7E:  MOVLW  A6
0B80:  MOVWF  FAC
0B82:  MOVLW  90
0B84:  MOVWF  FAB
0B86:  CLRF   17
0B88:  BCF    31.0
0B8A:  CLRF   33
0B8C:  CLRF   48
0B8E:  CLRF   53
0B90:  BCF    31.1
0B92:  MOVLB  4
0B94:  CLRF   xF2
0B96:  CLRF   xF1
0B98:  CLRF   xF3
0B9A:  CLRF   xF4
0B9C:  CLRF   xF6
0B9E:  CLRF   xF5
0BA0:  MOVF   FC1,W
0BA2:  ANDLW  C0
0BA4:  IORLW  0F
0BA6:  MOVWF  FC1
0BA8:  MOVLW  07
0BAA:  MOVWF  FB4
.................... { 
....................    printf("Esperando conexin..*"); 
0BAC:  MOVLW  D6
0BAE:  MOVWF  FF6
0BB0:  MOVLW  09
0BB2:  MOVWF  FF7
0BB4:  MOVLB  0
0BB6:  CALL   03AA
....................     
....................    MCU_Init(); 
0BBA:  BRA    0B3C
....................    #asm 
....................    call 0x4000 
0BBC:  CALL   4000,1
....................    #endasm 
.................... } 
....................  
0BC0:  SLEEP 

Configuration Fuses:
   Word  1: CC27   PLL12 CPUDIV1 USBDIV HS FCMEN IESO
   Word  2: 1E3E   PUT BROWNOUT BORV21 VREGEN NOWDT WDT32768
   Word  3: 0700   CCP2C1 PBADEN LPT1OSC NOMCLR
   Word  4: 00A1   STVREN NOLVP ICSP2 NOXINST NODEBUG
   Word  5: C00F   NOPROTECT NOCPB NOCPD
   Word  6: E00F   NOWRT NOWRTC NOWRTB NOWRTD
   Word  7: 400F   NOEBTR NOEBTRB
