CCS PCH C Compiler, Version 5.008, 5967               25-nov-14 15:18

               Filename:   D:\IGNACIO\ProgramacionGitHub\MT325-TiempoReal\Sistema\Programa PIC\SistemaPIC18f4550\CalendarizacionFinal\CalendarizacionFinal.lst

               ROM used:   9504 bytes (29%)
                           Largest free fragment is 11024
               RAM used:   1761 (86%) at main() level
                           1853 (90%) worst case
               Stack used: 8 locations (3 in main + 5 for interrupts)
               Stack size: 31

*
0000:  GOTO   0E26
*
0008:  MOVWF  04
000A:  MOVFF  FD8,05
000E:  MOVFF  FE0,06
0012:  MOVLB  0
0014:  MOVFF  FE9,0C
0018:  MOVFF  FEA,07
001C:  MOVFF  FE1,08
0020:  MOVFF  FE2,09
0024:  MOVFF  FD9,0A
0028:  MOVFF  FDA,0B
002C:  MOVFF  FF3,12
0030:  MOVFF  FF4,13
0034:  MOVFF  FFA,14
0038:  MOVFF  00,0E
003C:  MOVFF  01,0F
0040:  MOVFF  02,10
0044:  MOVFF  03,11
0048:  BTFSS  FF2.5
004A:  GOTO   0054
004E:  BTFSC  FF2.2
0050:  GOTO   00DA
0054:  BTFSS  F9D.5
0056:  GOTO   0060
005A:  BTFSC  F9E.5
005C:  GOTO   09D2
0060:  MOVFF  0E,00
0064:  MOVFF  0F,01
0068:  MOVFF  10,02
006C:  MOVFF  11,03
0070:  MOVFF  0C,FE9
0074:  MOVFF  07,FEA
0078:  BSF    07.7
007A:  MOVFF  08,FE1
007E:  MOVFF  09,FE2
0082:  MOVFF  0A,FD9
0086:  MOVFF  0B,FDA
008A:  MOVFF  12,FF3
008E:  MOVFF  13,FF4
0092:  MOVFF  14,FFA
0096:  MOVF   04,W
0098:  MOVFF  06,FE0
009C:  MOVFF  05,FD8
00A0:  RETFIE 0
.................... #include <18F4550.h> 
.................... //////// Standard Header file for the PIC18F4550 device //////////////// 
.................... #device PIC18F4550 
00A2:  CLRF   FF7
00A4:  ADDLW  B2
00A6:  MOVWF  FF6
00A8:  MOVLW  00
00AA:  ADDWFC FF7,F
00AC:  TBLRD*+
00AE:  MOVF   FF5,W
00B0:  RETURN 0
00B2:  DATA 00,00
*
00B8:  MOVLB  7
00BA:  MOVF   x38,W
00BC:  MULWF  x3A
00BE:  MOVFF  FF3,01
00C2:  MOVFF  FF4,00
00C6:  MULWF  x3B
00C8:  MOVF   FF3,W
00CA:  ADDWF  00,F
00CC:  MOVF   x39,W
00CE:  MULWF  x3A
00D0:  MOVF   FF3,W
00D2:  ADDWFC 00,W
00D4:  MOVWF  02
00D6:  MOVLB  0
00D8:  RETURN 0
*
034C:  MOVLB  7
034E:  CLRF   x33
0350:  CLRF   x34
0352:  MOVLW  01
0354:  MOVWF  x35
0356:  CLRF   FDA
0358:  CLRF   FD9
035A:  MOVLW  07
035C:  MOVWF  x38
035E:  MOVLW  2B
0360:  MOVWF  x37
0362:  MOVLW  07
0364:  MOVWF  FEA
0366:  MOVLW  2F
0368:  MOVWF  FE9
036A:  MOVFF  738,FE2
036E:  MOVFF  737,FE1
0372:  MOVFF  735,736
0376:  BCF    FD8.0
0378:  MOVF   FE5,W
037A:  MULWF  FEE
037C:  MOVF   FF3,W
037E:  ADDWFC x33,F
0380:  MOVF   FF4,W
0382:  ADDWFC x34,F
0384:  DECFSZ x36,F
0386:  BRA    0376
0388:  MOVFF  733,FDE
038C:  MOVFF  734,733
0390:  CLRF   x34
0392:  BTFSC  FD8.0
0394:  INCF   x34,F
0396:  INCF   x37,F
0398:  BTFSC  FD8.2
039A:  INCF   x38,F
039C:  INCF   x35,F
039E:  MOVF   x35,W
03A0:  SUBLW  05
03A2:  BNZ   0362
03A4:  MOVLB  0
03A6:  RETURN 0
*
0408:  MOVLW  B6
040A:  MOVWF  00
040C:  CLRF   03
040E:  CLRF   02
0410:  CLRF   01
0412:  MOVLB  7
0414:  MOVF   x25,W
0416:  IORWF  x26,W
0418:  IORWF  x27,W
041A:  IORWF  x28,W
041C:  BNZ   0422
041E:  CLRF   00
0420:  BRA    043C
0422:  BCF    FD8.0
0424:  BTFSC  01.7
0426:  BRA    043A
0428:  RLCF   x25,F
042A:  RLCF   x26,F
042C:  RLCF   x27,F
042E:  RLCF   x28,F
0430:  RLCF   03,F
0432:  RLCF   02,F
0434:  RLCF   01,F
0436:  DECFSZ 00,F
0438:  BRA    0422
043A:  BCF    01.7
043C:  MOVLB  0
043E:  RETURN 0
0440:  MOVLW  80
0442:  BTFSS  FD8.1
0444:  BRA    044A
0446:  MOVLB  7
0448:  XORWF  x2C,F
044A:  MOVLB  7
044C:  CLRF   x31
044E:  CLRF   x32
0450:  MOVFF  728,730
0454:  MOVF   x2C,W
0456:  XORWF  x30,F
0458:  MOVF   x27,W
045A:  BTFSC  FD8.2
045C:  BRA    061C
045E:  MOVWF  x2F
0460:  MOVWF  00
0462:  MOVF   x2B,W
0464:  BTFSC  FD8.2
0466:  BRA    062E
0468:  SUBWF  x2F,F
046A:  BTFSC  FD8.2
046C:  BRA    0574
046E:  BNC   04EC
0470:  MOVFF  72C,735
0474:  BSF    x35.7
0476:  MOVFF  72D,734
047A:  MOVFF  72E,733
047E:  CLRF   x32
0480:  BCF    FD8.0
0482:  RRCF   x35,F
0484:  RRCF   x34,F
0486:  RRCF   x33,F
0488:  RRCF   x32,F
048A:  DECFSZ x2F,F
048C:  BRA    047E
048E:  BTFSS  x30.7
0490:  BRA    0498
0492:  BSF    x31.0
0494:  BRA    0656
0496:  BCF    x31.0
0498:  BCF    x2F.0
049A:  BSF    x31.4
049C:  MOVLW  07
049E:  MOVWF  FEA
04A0:  MOVLW  2A
04A2:  MOVWF  FE9
04A4:  BRA    067C
04A6:  BCF    x31.4
04A8:  BTFSC  x30.7
04AA:  BRA    04C0
04AC:  BTFSS  x2F.0
04AE:  BRA    04D6
04B0:  RRCF   x35,F
04B2:  RRCF   x34,F
04B4:  RRCF   x33,F
04B6:  RRCF   x32,F
04B8:  INCF   00,F
04BA:  BTFSC  FD8.2
04BC:  BRA    064C
04BE:  BRA    04D6
04C0:  BTFSC  x35.7
04C2:  BRA    04DC
04C4:  BCF    FD8.0
04C6:  RLCF   x32,F
04C8:  RLCF   x33,F
04CA:  RLCF   x34,F
04CC:  RLCF   x35,F
04CE:  DECF   00,F
04D0:  BTFSC  FD8.2
04D2:  BRA    064C
04D4:  BRA    04C0
04D6:  BSF    x31.6
04D8:  BRA    05B4
04DA:  BCF    x31.6
04DC:  MOVFF  728,730
04E0:  BTFSS  x28.7
04E2:  BRA    04E8
04E4:  BSF    x35.7
04E6:  BRA    063E
04E8:  BCF    x35.7
04EA:  BRA    063E
04EC:  MOVFF  72B,72F
04F0:  MOVFF  72B,00
04F4:  MOVF   x27,W
04F6:  SUBWF  x2F,F
04F8:  MOVFF  728,735
04FC:  BSF    x35.7
04FE:  MOVFF  729,734
0502:  MOVFF  72A,733
0506:  CLRF   x32
0508:  BCF    FD8.0
050A:  RRCF   x35,F
050C:  RRCF   x34,F
050E:  RRCF   x33,F
0510:  RRCF   x32,F
0512:  DECFSZ x2F,F
0514:  BRA    0506
0516:  BTFSS  x30.7
0518:  BRA    0520
051A:  BSF    x31.1
051C:  BRA    0656
051E:  BCF    x31.1
0520:  BCF    x2F.0
0522:  BSF    x31.5
0524:  MOVLW  07
0526:  MOVWF  FEA
0528:  MOVLW  2E
052A:  MOVWF  FE9
052C:  BRA    067C
052E:  BCF    x31.5
0530:  BTFSC  x30.7
0532:  BRA    0548
0534:  BTFSS  x2F.0
0536:  BRA    055E
0538:  RRCF   x35,F
053A:  RRCF   x34,F
053C:  RRCF   x33,F
053E:  RRCF   x32,F
0540:  INCF   00,F
0542:  BTFSC  FD8.2
0544:  BRA    064C
0546:  BRA    055E
0548:  BTFSC  x35.7
054A:  BRA    0564
054C:  BCF    FD8.0
054E:  RLCF   x32,F
0550:  RLCF   x33,F
0552:  RLCF   x34,F
0554:  RLCF   x35,F
0556:  DECF   00,F
0558:  BTFSC  FD8.2
055A:  BRA    064C
055C:  BRA    0548
055E:  BSF    x31.7
0560:  BRA    05B4
0562:  BCF    x31.7
0564:  MOVFF  72C,730
0568:  BTFSS  x2C.7
056A:  BRA    0570
056C:  BSF    x35.7
056E:  BRA    063E
0570:  BCF    x35.7
0572:  BRA    063E
0574:  MOVFF  72C,735
0578:  BSF    x35.7
057A:  MOVFF  72D,734
057E:  MOVFF  72E,733
0582:  BTFSS  x30.7
0584:  BRA    058E
0586:  BCF    x35.7
0588:  BSF    x31.2
058A:  BRA    0656
058C:  BCF    x31.2
058E:  CLRF   x32
0590:  BCF    x2F.0
0592:  MOVLW  07
0594:  MOVWF  FEA
0596:  MOVLW  2A
0598:  MOVWF  FE9
059A:  BRA    067C
059C:  BTFSC  x30.7
059E:  BRA    05D8
05A0:  MOVFF  728,730
05A4:  BTFSS  x2F.0
05A6:  BRA    05B4
05A8:  RRCF   x35,F
05AA:  RRCF   x34,F
05AC:  RRCF   x33,F
05AE:  RRCF   x32,F
05B0:  INCF   00,F
05B2:  BZ    064C
05B4:  BTFSS  x32.7
05B6:  BRA    05CE
05B8:  INCF   x33,F
05BA:  BNZ   05CE
05BC:  INCF   x34,F
05BE:  BNZ   05CE
05C0:  INCF   x35,F
05C2:  BNZ   05CE
05C4:  RRCF   x35,F
05C6:  RRCF   x34,F
05C8:  RRCF   x33,F
05CA:  INCF   00,F
05CC:  BZ    064C
05CE:  BTFSC  x31.6
05D0:  BRA    04DA
05D2:  BTFSC  x31.7
05D4:  BRA    0562
05D6:  BRA    0610
05D8:  MOVLW  80
05DA:  XORWF  x35,F
05DC:  BTFSS  x35.7
05DE:  BRA    05E8
05E0:  BRA    0656
05E2:  MOVFF  72C,730
05E6:  BRA    05FC
05E8:  MOVFF  728,730
05EC:  MOVF   x35,F
05EE:  BNZ   05FC
05F0:  MOVF   x34,F
05F2:  BNZ   05FC
05F4:  MOVF   x33,F
05F6:  BNZ   05FC
05F8:  CLRF   00
05FA:  BRA    063E
05FC:  BTFSC  x35.7
05FE:  BRA    0610
0600:  BCF    FD8.0
0602:  RLCF   x32,F
0604:  RLCF   x33,F
0606:  RLCF   x34,F
0608:  RLCF   x35,F
060A:  DECFSZ 00,F
060C:  BRA    05FC
060E:  BRA    064C
0610:  BTFSS  x30.7
0612:  BRA    0618
0614:  BSF    x35.7
0616:  BRA    063E
0618:  BCF    x35.7
061A:  BRA    063E
061C:  MOVFF  72B,00
0620:  MOVFF  72C,735
0624:  MOVFF  72D,734
0628:  MOVFF  72E,733
062C:  BRA    063E
062E:  MOVFF  727,00
0632:  MOVFF  728,735
0636:  MOVFF  729,734
063A:  MOVFF  72A,733
063E:  MOVFF  735,01
0642:  MOVFF  734,02
0646:  MOVFF  733,03
064A:  BRA    06B4
064C:  CLRF   00
064E:  CLRF   01
0650:  CLRF   02
0652:  CLRF   03
0654:  BRA    06B4
0656:  CLRF   x32
0658:  COMF   x33,F
065A:  COMF   x34,F
065C:  COMF   x35,F
065E:  COMF   x32,F
0660:  INCF   x32,F
0662:  BNZ   066E
0664:  INCF   x33,F
0666:  BNZ   066E
0668:  INCF   x34,F
066A:  BNZ   066E
066C:  INCF   x35,F
066E:  BTFSC  x31.0
0670:  BRA    0496
0672:  BTFSC  x31.1
0674:  BRA    051E
0676:  BTFSC  x31.2
0678:  BRA    058C
067A:  BRA    05E2
067C:  MOVF   FEF,W
067E:  ADDWF  x33,F
0680:  BNC   068C
0682:  INCF   x34,F
0684:  BNZ   068C
0686:  INCF   x35,F
0688:  BTFSC  FD8.2
068A:  BSF    x2F.0
068C:  MOVF   FED,F
068E:  MOVF   FEF,W
0690:  ADDWF  x34,F
0692:  BNC   069A
0694:  INCF   x35,F
0696:  BTFSC  FD8.2
0698:  BSF    x2F.0
069A:  MOVF   FED,F
069C:  MOVF   FEF,W
069E:  BTFSC  FEF.7
06A0:  BRA    06A4
06A2:  XORLW  80
06A4:  ADDWF  x35,F
06A6:  BTFSC  FD8.0
06A8:  BSF    x2F.0
06AA:  BTFSC  x31.4
06AC:  BRA    04A6
06AE:  BTFSC  x31.5
06B0:  BRA    052E
06B2:  BRA    059C
06B4:  MOVLB  0
06B6:  RETURN 0
06B8:  MOVLB  7
06BA:  MOVF   x27,W
06BC:  SUBLW  B6
06BE:  MOVWF  x27
06C0:  CLRF   03
06C2:  MOVFF  728,72B
06C6:  BSF    x28.7
06C8:  BCF    FD8.0
06CA:  RRCF   x28,F
06CC:  RRCF   x29,F
06CE:  RRCF   x2A,F
06D0:  RRCF   03,F
06D2:  RRCF   02,F
06D4:  RRCF   01,F
06D6:  RRCF   00,F
06D8:  DECFSZ x27,F
06DA:  BRA    06C8
06DC:  BTFSS  x2B.7
06DE:  BRA    06F6
06E0:  COMF   00,F
06E2:  COMF   01,F
06E4:  COMF   02,F
06E6:  COMF   03,F
06E8:  INCF   00,F
06EA:  BTFSC  FD8.2
06EC:  INCF   01,F
06EE:  BTFSC  FD8.2
06F0:  INCF   02,F
06F2:  BTFSC  FD8.2
06F4:  INCF   03,F
06F6:  MOVLB  0
06F8:  RETURN 0
*
0A06:  DATA 0A,20
0A08:  DATA 70,72
0A0A:  DATA 6F,63
0A0C:  DATA 65,73
0A0E:  DATA 6F,20
0A10:  DATA 64,65
0A12:  DATA 73,63
0A14:  DATA 61,72
0A16:  DATA 67,61
0A18:  DATA 64,6F
0A1A:  DATA 20,20
0A1C:  DATA 20,3A
0A1E:  DATA 20,25
0A20:  DATA 75,20
0A22:  DATA 20,00
0A24:  DATA 0A,20
0A26:  DATA 27,53
0A28:  DATA 2E,4F
0A2A:  DATA 2E,20
0A2C:  DATA 56,65
0A2E:  DATA 72,73
0A30:  DATA 69,6F
0A32:  DATA 6E,20
0A34:  DATA 33,2E
0A36:  DATA 32,27
0A38:  DATA 20,0A
0A3A:  DATA 00,00
0A3C:  DATA 25,75
0A3E:  DATA 20,2B
0A40:  DATA 20,25
0A42:  DATA 73,20
0A44:  DATA 2B,20
0A46:  DATA 25,75
0A48:  DATA 20,2B
0A4A:  DATA 20,25
0A4C:  DATA 4C,75
0A4E:  DATA 20,2B
0A50:  DATA 20,25
0A52:  DATA 4C,75
0A54:  DATA 20,2B
0A56:  DATA 20,25
0A58:  DATA 4C,75
0A5A:  DATA 00,00
0A5C:  DATA 50,72
0A5E:  DATA 6F,63
0A60:  DATA 65,73
0A62:  DATA 6F,73
0A64:  DATA 20,63
0A66:  DATA 61,72
0A68:  DATA 67,61
0A6A:  DATA 64,6F
0A6C:  DATA 73,20
0A6E:  DATA 45,78
0A70:  DATA 69,74
0A72:  DATA 6F,73
0A74:  DATA 61,6D
0A76:  DATA 65,6E
0A78:  DATA 74,65
0A7A:  DATA 00,00
*
0B56:  BTFSC  FD8.1
0B58:  BRA    0B62
0B5A:  MOVLW  06
0B5C:  MOVWF  FEA
0B5E:  MOVLW  F8
0B60:  MOVWF  FE9
0B62:  CLRF   00
0B64:  CLRF   01
0B66:  CLRF   02
0B68:  CLRF   03
0B6A:  MOVLB  6
0B6C:  CLRF   xF8
0B6E:  CLRF   xF9
0B70:  CLRF   xFA
0B72:  CLRF   xFB
0B74:  MOVF   xF7,W
0B76:  IORWF  xF6,W
0B78:  IORWF  xF5,W
0B7A:  IORWF  xF4,W
0B7C:  BZ    0BD6
0B7E:  MOVLW  20
0B80:  MOVWF  xFC
0B82:  BCF    FD8.0
0B84:  RLCF   xF0,F
0B86:  RLCF   xF1,F
0B88:  RLCF   xF2,F
0B8A:  RLCF   xF3,F
0B8C:  RLCF   xF8,F
0B8E:  RLCF   xF9,F
0B90:  RLCF   xFA,F
0B92:  RLCF   xFB,F
0B94:  MOVF   xF7,W
0B96:  SUBWF  xFB,W
0B98:  BNZ   0BAA
0B9A:  MOVF   xF6,W
0B9C:  SUBWF  xFA,W
0B9E:  BNZ   0BAA
0BA0:  MOVF   xF5,W
0BA2:  SUBWF  xF9,W
0BA4:  BNZ   0BAA
0BA6:  MOVF   xF4,W
0BA8:  SUBWF  xF8,W
0BAA:  BNC   0BCA
0BAC:  MOVF   xF4,W
0BAE:  SUBWF  xF8,F
0BB0:  MOVF   xF5,W
0BB2:  BTFSS  FD8.0
0BB4:  INCFSZ xF5,W
0BB6:  SUBWF  xF9,F
0BB8:  MOVF   xF6,W
0BBA:  BTFSS  FD8.0
0BBC:  INCFSZ xF6,W
0BBE:  SUBWF  xFA,F
0BC0:  MOVF   xF7,W
0BC2:  BTFSS  FD8.0
0BC4:  INCFSZ xF7,W
0BC6:  SUBWF  xFB,F
0BC8:  BSF    FD8.0
0BCA:  RLCF   00,F
0BCC:  RLCF   01,F
0BCE:  RLCF   02,F
0BD0:  RLCF   03,F
0BD2:  DECFSZ xFC,F
0BD4:  BRA    0B82
0BD6:  MOVFF  6F8,FEF
0BDA:  MOVFF  6F9,FEC
0BDE:  MOVFF  6FA,FEC
0BE2:  MOVFF  6FB,FEC
0BE6:  MOVLB  0
0BE8:  RETURN 0
0BEA:  MOVF   FEF,F
0BEC:  BZ    0C0E
0BEE:  MOVFF  FEA,6E5
0BF2:  MOVFF  FE9,6E4
0BF6:  MOVF   FEF,W
0BF8:  BTFSS  F9E.4
0BFA:  BRA    0BF8
0BFC:  MOVWF  FAD
0BFE:  MOVFF  6E5,FEA
0C02:  MOVFF  6E4,FE9
0C06:  INCF   FE9,F
0C08:  BTFSC  FD8.2
0C0A:  INCF   FEA,F
0C0C:  BRA    0BEA
0C0E:  RETURN 0
0C10:  TBLRD*+
0C12:  MOVFF  FF6,6E5
0C16:  MOVFF  FF7,6E6
0C1A:  MOVF   FF5,W
0C1C:  BTFSS  F9E.4
0C1E:  BRA    0C1C
0C20:  MOVWF  FAD
0C22:  MOVFF  6E5,FF6
0C26:  MOVFF  6E6,FF7
0C2A:  MOVLB  6
0C2C:  DECFSZ xE4,F
0C2E:  BRA    0C32
0C30:  BRA    0C36
0C32:  MOVLB  0
0C34:  BRA    0C10
0C36:  MOVLB  0
0C38:  RETURN 0
0C3A:  MOVLB  6
0C3C:  MOVF   xE7,W
0C3E:  CLRF   01
0C40:  SUBWF  xE6,W
0C42:  BC    0C4A
0C44:  MOVFF  6E6,00
0C48:  BRA    0C62
0C4A:  CLRF   00
0C4C:  MOVLW  08
0C4E:  MOVWF  xE8
0C50:  RLCF   xE6,F
0C52:  RLCF   00,F
0C54:  MOVF   xE7,W
0C56:  SUBWF  00,W
0C58:  BTFSC  FD8.0
0C5A:  MOVWF  00
0C5C:  RLCF   01,F
0C5E:  DECFSZ xE8,F
0C60:  BRA    0C50
0C62:  MOVLB  0
0C64:  RETURN 0
0C66:  MOVF   01,W
0C68:  MOVFF  6E4,6E6
0C6C:  MOVLW  64
0C6E:  MOVLB  6
0C70:  MOVWF  xE7
0C72:  MOVLB  0
0C74:  RCALL  0C3A
0C76:  MOVFF  00,6E4
0C7A:  MOVF   01,W
0C7C:  MOVLW  30
0C7E:  BNZ   0C90
0C80:  MOVLB  6
0C82:  BTFSS  xE5.1
0C84:  BRA    0CA2
0C86:  BTFSC  xE5.3
0C88:  BRA    0CA2
0C8A:  BTFSC  xE5.4
0C8C:  MOVLW  20
0C8E:  BRA    0C98
0C90:  MOVLB  6
0C92:  BCF    xE5.3
0C94:  BCF    xE5.4
0C96:  BSF    xE5.0
0C98:  ADDWF  01,F
0C9A:  MOVF   01,W
0C9C:  BTFSS  F9E.4
0C9E:  BRA    0C9C
0CA0:  MOVWF  FAD
0CA2:  MOVFF  6E4,6E6
0CA6:  MOVLW  0A
0CA8:  MOVWF  xE7
0CAA:  MOVLB  0
0CAC:  RCALL  0C3A
0CAE:  MOVFF  00,6E4
0CB2:  MOVF   01,W
0CB4:  MOVLW  30
0CB6:  BNZ   0CC8
0CB8:  MOVLB  6
0CBA:  BTFSC  xE5.3
0CBC:  BRA    0CD4
0CBE:  BTFSS  xE5.0
0CC0:  BRA    0CD4
0CC2:  BTFSC  xE5.4
0CC4:  MOVLW  20
0CC6:  MOVLB  0
0CC8:  ADDWF  01,F
0CCA:  MOVF   01,W
0CCC:  BTFSS  F9E.4
0CCE:  BRA    0CCC
0CD0:  MOVWF  FAD
0CD2:  MOVLB  6
0CD4:  MOVLW  30
0CD6:  ADDWF  xE4,F
0CD8:  MOVF   xE4,W
0CDA:  BTFSS  F9E.4
0CDC:  BRA    0CDA
0CDE:  MOVWF  FAD
0CE0:  MOVLB  0
0CE2:  RETURN 0
0CE4:  TBLRD*+
0CE6:  MOVF   FF5,F
0CE8:  BZ    0D04
0CEA:  MOVFF  FF6,6E4
0CEE:  MOVFF  FF7,6E5
0CF2:  MOVF   FF5,W
0CF4:  BTFSS  F9E.4
0CF6:  BRA    0CF4
0CF8:  MOVWF  FAD
0CFA:  MOVFF  6E4,FF6
0CFE:  MOVFF  6E5,FF7
0D02:  BRA    0CE4
0D04:  RETURN 0
0D06:  MOVF   FE9,W
0D08:  MOVLB  6
0D0A:  MOVWF  xE8
0D0C:  MOVLW  3B
0D0E:  MOVWF  xEF
0D10:  MOVLW  9A
0D12:  MOVWF  xEE
0D14:  MOVLW  CA
0D16:  MOVWF  xED
0D18:  CLRF   xEC
0D1A:  MOVLW  0A
0D1C:  MOVWF  xEA
0D1E:  BSF    FD8.1
0D20:  MOVLW  06
0D22:  MOVWF  FEA
0D24:  MOVLW  E4
0D26:  MOVWF  FE9
0D28:  MOVFF  6E7,6F3
0D2C:  MOVFF  6E6,6F2
0D30:  MOVFF  6E5,6F1
0D34:  MOVFF  6E4,6F0
0D38:  MOVFF  6EF,6F7
0D3C:  MOVFF  6EE,6F6
0D40:  MOVFF  6ED,6F5
0D44:  MOVFF  6EC,6F4
0D48:  MOVLB  0
0D4A:  RCALL  0B56
0D4C:  MOVF   01,W
0D4E:  MOVF   00,F
0D50:  BNZ   0D78
0D52:  MOVLB  6
0D54:  MOVF   xEA,W
0D56:  XORLW  01
0D58:  BTFSS  FD8.2
0D5A:  BRA    0D60
0D5C:  MOVLB  0
0D5E:  BRA    0D78
0D60:  MOVF   xE8,W
0D62:  BZ    0D7C
0D64:  ANDLW  0F
0D66:  SUBWF  xEA,W
0D68:  BZ    0D6C
0D6A:  BC    0D88
0D6C:  BTFSC  xE8.7
0D6E:  BRA    0D88
0D70:  BTFSC  xE8.6
0D72:  BRA    0D7C
0D74:  MOVLW  20
0D76:  BRA    0D7E
0D78:  MOVLB  6
0D7A:  CLRF   xE8
0D7C:  MOVLW  30
0D7E:  ADDWF  00,F
0D80:  MOVF   00,W
0D82:  BTFSS  F9E.4
0D84:  BRA    0D82
0D86:  MOVWF  FAD
0D88:  BCF    FD8.1
0D8A:  MOVFF  6EF,6F3
0D8E:  MOVFF  6EE,6F2
0D92:  MOVFF  6ED,6F1
0D96:  MOVFF  6EC,6F0
0D9A:  CLRF   xF7
0D9C:  CLRF   xF6
0D9E:  CLRF   xF5
0DA0:  MOVLW  0A
0DA2:  MOVWF  xF4
0DA4:  MOVLB  0
0DA6:  RCALL  0B56
0DA8:  MOVFF  03,6EF
0DAC:  MOVFF  02,6EE
0DB0:  MOVFF  01,6ED
0DB4:  MOVFF  00,6EC
0DB8:  MOVLB  6
0DBA:  DECFSZ xEA,F
0DBC:  BRA    0D1E
0DBE:  MOVLB  0
0DC0:  RETURN 0
*
0DF8:  MOVFF  FF2,0D
0DFC:  BCF    FF2.7
0DFE:  ADDWF  FE8,W
0E00:  CLRF   FF7
0E02:  RLCF   FF7,F
0E04:  ADDLW  1D
0E06:  MOVWF  FF6
0E08:  MOVLW  0E
0E0A:  ADDWFC FF7,F
0E0C:  TBLRD*-
0E0E:  MOVF   FF5,W
0E10:  MOVWF  FFA
0E12:  TBLRD*
0E14:  MOVF   FF5,W
0E16:  BTFSC  0D.7
0E18:  BSF    FF2.7
0E1A:  MOVWF  FF9
0E1C:  DATA EE,38
0E1E:  DATA 34,39
0E20:  DATA 7A,39
0E22:  DATA C0,39
0E24:  DATA 06,3A
....................  
.................... #list 
....................  
.................... #device   adc=10 
....................  
.................... #use    delay(clock=20000000) 
*
0DC2:  MOVLW  06
0DC4:  MOVWF  FEA
0DC6:  MOVLW  E4
0DC8:  MOVWF  FE9
0DCA:  MOVF   FEF,W
0DCC:  BZ    0DE8
0DCE:  MOVLW  06
0DD0:  MOVWF  01
0DD2:  CLRF   00
0DD4:  DECFSZ 00,F
0DD6:  BRA    0DD4
0DD8:  DECFSZ 01,F
0DDA:  BRA    0DD2
0DDC:  MOVLW  7B
0DDE:  MOVWF  00
0DE0:  DECFSZ 00,F
0DE2:  BRA    0DE0
0DE4:  DECFSZ FEF,F
0DE6:  BRA    0DCE
0DE8:  GOTO   38C0 (RETURN)
.................... #use    rs232(baud=9600, xmit=PIN_C6,rcv=PIN_C7) 
.................... #fuses  HS,NOPROTECT,NOWDT,NOLVP,PUT            
.................... //#include <lcd.c> 
.................... #define Tiempo 200 
....................  
.................... #byte PORTA =0x80   // 0b10000000    
.................... #byte PORTB =0x81   // 0b10000001  
.................... #byte PORTC =0x82   // 0b10000010 
.................... #byte PORTD =0x83   // 0b10000011 
.................... #byte PORTE =0x84   // 0b10000100 
.................... #byte TRISA =0x92   // 0b10100010 
.................... #byte TRISB =0x93   // 
.................... #byte TRISC =0x94   //  
.................... #byte TRISD =0x95   // 
.................... #byte TRISE =0x96   // 
....................  
.................... #byte TOSU=0xFFF 
.................... #byte TOSH=0xFFE 
.................... #byte TOSL=0xFFD 
.................... #byte STKPTR=0xFFC   
.................... #byte PCLATU=0xFFB   
.................... #byte PCLATH=0xFFA    
.................... #byte PCL=0xFF9     
.................... #byte TMR0H=0xFD7 
.................... #byte TMR0L=0xFD6 
.................... #byte TMR1H=0xFD9 
.................... #byte TMR1L=0xFD4 
.................... #byte T0CON=0xFD5 
.................... #byte T1CON=0xFD6 
.................... #byte bsr=0xFE0 
.................... #byte wreg=0xFE8 
.................... #byte status=0xFD8 
.................... #byte RCON=0xFD0 
.................... #byte INTCON=0xFF2 
....................  
.................... #byte ADCON0=0x1F 
.................... #bit  ANALOGICO= ADCON0.3 
.................... #bit  TMR0IE=INTCON.5 
.................... #bit  TMR0IF=INTCON.2 
.................... #bit  TMR1IE=INTCON.5 
.................... #bit  TMR1IF=INTCON.2 
.................... #bit  IPEN=RCON.7 
....................  
.................... // ==================== VARIABLES DEL BUFFER ============================== 
.................... int8 const size_buffer=32; 
.................... int    x_buffer=0x00;  
.................... char   c_buffer[size_buffer];  
.................... char   name[4]; 
.................... float quantum=0.025;      
....................  
.................... // ===== VARIABLES DEL Sistema Operativo ======= \\ 
....................  
.................... int8 colap[20]; 
.................... int8 np=0;  
.................... // int i, ii,ii1; 
.................... int8 i, ii, ii1, ii2, ii3, ii4, ii5; 
.................... int8 busc; 
.................... int32  result=0;  
.................... int8 h1, h2, h3, h4, h5; 
.................... int8 f1, f2, f3, f4, f5; 
....................  
.................... // ====  VARIABLES PARA ENVIAR AL ADMINISTRADOR DE PROCESOS 
.................... int8   idenv;         // ID del proceso 
.................... char   nomenv[5];     // NOMBRE del proceso 
.................... int8   estenv;        // ESTADO del proceso 
.................... int32  direnv;        // DIR_INI del proceso 
.................... int32  diraenv;       // DIR_ACT del ptoceso 
.................... int32  quantenv;      // NUMERO QUANTUM del proceso 
....................   
.................... int8 opcion; 
....................  
.................... // Variables del convertidor ADC 
.................... float value; 
.................... int16 value1; 
.................... //============================= 
....................  
.................... int32 dirini ; 
.................... int8 killp; 
....................  
.................... int8 k1,k2,k3,k4,k5,k6; 
.................... int8 l1,l2,l3,l4,l5,l6; 
....................  
.................... int8 m; 
....................  
.................... struct pcb{ 
....................    int32 dir_ini;     // Direccion inicial  TOSU TOSH TOSL 
....................    // int32 dir_fin;     // Direccion final    TOSU TOSH TOSL 
....................    int32 dir_cor;     // Direccion actual   TOSU TOSH TOSL 
....................    int8 estado;        // Descargado=0; CargadoSinIniciar=1; Cargado=2; 
....................    int8 wreg;          // Almacena el registro de trabajo WREG 
....................    int8 status;        // Almacena el estado del procesador STATUS 
....................    int8 bsr;           // Almacena los datos del estado del proceso BSR 
....................    int8 id;            // ID identificador o numero del proceso   
....................    int8 prioridad;    // prioridad del procesos en ejecucion  
....................    int32 tiem_eje;    // Tiempo de ejcucion del proceso 
....................    char nombre[5];    // Nombre del proceso  
.................... }  procesos[13];  
....................  
.................... // ======== VARIABLES DEL CALENDARIO ========== \\ 
.................... // estado_calendario = 0 -->   No ejecutar  
.................... // estado_calendario = 1 -->   Ejecutar  
.................... // estado_calendario = 2 -->   Vacio   
....................  
.................... int8 calendario[1300]; 
.................... int reloj = 0; 
.................... int long_calendario; 
.................... int estado_calendario = 0; 
.................... //========================= 
.................... int8 band_calendario=0; 
.................... int8 band_cal_ejec=0; 
.................... int16 ind_cal=0; 
.................... int16 mcm=0; 
.................... int bandera=0; 
.................... //============================= 
....................  
....................  
.................... void iniciar_quantum() 
.................... {   
....................    // set_timer0(65478);    //    para 3ms 
....................    // set_timer0(65438);    //    para 5ms 
....................    // set_timer0(65380);    //    para 8ms 
....................    // set_timer0(65341);    //    para 10ms 
....................    // set_timer0(65282);    //    para 13ms 
....................    // set_timer0(65243);    //    para 15ms 
....................    // set_timer0(65185);    //    para 18ms 
....................    // set_timer0(65146);    //    para 20ms 
....................     set_timer0(65048);    //    para 25ms 
0DEC:  MOVLW  FE
0DEE:  MOVWF  FD7
0DF0:  MOVLW  18
0DF2:  MOVWF  FD6
....................    // set_timer0(64950);    //    para 30ms 
....................    enable_interrupts(INT_TIMER0); 
0DF4:  BSF    FF2.5
0DF6:  RETURN 0
.................... } 
....................  
.................... void fin_quantum(){ 
....................    disable_interrupts(INT_TIMER0); 
*
00B4:  BCF    FF2.5
00B6:  RETURN 0
.................... } 
....................  
.................... Int1 cont=0; 
.................... Int1 flag_1 = 0; 
....................  
.................... #INT_TIMER0  //interrupcion la funcion a ejecutarse por el timer 0 
.................... void inter_quantum() 
.................... {   
....................    fin_quantum(); 
*
00DA:  RCALL  00B4
....................    if(cont == 0){output_bit(PIN_B7,1); cont =1;} 
00DC:  MOVLB  6
00DE:  BTFSC  xE0.0
00E0:  BRA    00EA
00E2:  BSF    F8A.7
00E4:  BCF    F93.7
00E6:  BSF    xE0.0
00E8:  BRA    00F0
....................    else{output_bit(PIN_B7,0);cont = 0;} 
00EA:  BCF    F8A.7
00EC:  BCF    F93.7
00EE:  BCF    xE0.0
....................    procesos[colap[0]].wreg=wreg; 
00F0:  MOVLB  7
00F2:  CLRF   x39
00F4:  MOVFF  40,738
00F8:  CLRF   x3B
00FA:  MOVLW  17
00FC:  MOVWF  x3A
00FE:  MOVLB  0
0100:  RCALL  00B8
0102:  MOVFF  01,700
0106:  MOVLW  09
0108:  MOVLB  7
010A:  ADDWF  01,W
010C:  MOVWF  01
010E:  MOVLW  00
0110:  ADDWFC 02,W
0112:  MOVWF  03
0114:  MOVF   01,W
0116:  ADDLW  97
0118:  MOVWF  FE9
011A:  MOVLW  00
011C:  ADDWFC 03,W
011E:  MOVWF  FEA
0120:  MOVFF  FE8,FEF
....................    procesos[colap[0]].dir_cor = (int32)TOSL; 
0124:  CLRF   x39
0126:  MOVFF  40,738
012A:  CLRF   x3B
012C:  MOVLW  17
012E:  MOVWF  x3A
0130:  MOVLB  0
0132:  RCALL  00B8
0134:  MOVFF  02,701
0138:  MOVFF  01,700
013C:  MOVLW  04
013E:  MOVLB  7
0140:  ADDWF  01,W
0142:  MOVWF  01
0144:  MOVLW  00
0146:  ADDWFC 02,W
0148:  MOVWF  03
014A:  MOVF   01,W
014C:  ADDLW  97
014E:  MOVWF  FE9
0150:  MOVLW  00
0152:  ADDWFC 03,W
0154:  MOVWF  FEA
0156:  CLRF   01
0158:  CLRF   02
015A:  CLRF   03
015C:  MOVFF  FFD,FEF
0160:  MOVFF  01,FEC
0164:  MOVFF  02,FEC
0168:  MOVFF  03,FEC
....................    procesos[colap[0]].dir_cor = procesos[colap[0]].dir_cor|((int32)TOSH<<8); 
016C:  CLRF   x39
016E:  MOVFF  40,738
0172:  CLRF   x3B
0174:  MOVLW  17
0176:  MOVWF  x3A
0178:  MOVLB  0
017A:  RCALL  00B8
017C:  MOVFF  01,700
0180:  MOVLW  04
0182:  MOVLB  7
0184:  ADDWF  01,W
0186:  MOVWF  01
0188:  MOVLW  00
018A:  ADDWFC 02,W
018C:  MOVWF  03
018E:  MOVF   01,W
0190:  ADDLW  97
0192:  MOVWF  01
0194:  MOVLW  00
0196:  ADDWFC 03,F
0198:  MOVFF  01,700
019C:  MOVFF  03,701
01A0:  CLRF   x39
01A2:  MOVFF  40,738
01A6:  CLRF   x3B
01A8:  MOVLW  17
01AA:  MOVWF  x3A
01AC:  MOVLB  0
01AE:  RCALL  00B8
01B0:  MOVFF  01,702
01B4:  MOVLW  04
01B6:  MOVLB  7
01B8:  ADDWF  01,W
01BA:  MOVWF  01
01BC:  MOVLW  00
01BE:  ADDWFC 02,W
01C0:  MOVWF  03
01C2:  MOVF   01,W
01C4:  ADDLW  97
01C6:  MOVWF  FE9
01C8:  MOVLW  00
01CA:  ADDWFC 03,W
01CC:  MOVWF  FEA
01CE:  MOVFF  FEF,702
01D2:  MOVFF  FEC,703
01D6:  MOVFF  FEC,704
01DA:  MOVFF  FEC,705
01DE:  CLRF   x08
01E0:  CLRF   x07
01E2:  CLRF   00
01E4:  MOVF   00,W
01E6:  IORWF  x02,W
01E8:  MOVWF  00
01EA:  MOVF   FFE,W
01EC:  IORWF  x03,W
01EE:  MOVWF  01
01F0:  MOVF   x07,W
01F2:  IORWF  x04,W
01F4:  MOVWF  02
01F6:  MOVF   x08,W
01F8:  IORWF  x05,W
01FA:  MOVFF  701,FEA
01FE:  MOVFF  700,FE9
0202:  MOVFF  00,FEF
0206:  MOVFF  01,FEC
020A:  MOVFF  02,FEC
020E:  MOVWF  FEC
....................    procesos[colap[0]].dir_cor = procesos[colap[0]].dir_cor|((int32)TOSU<<16); 
0210:  CLRF   x39
0212:  MOVFF  40,738
0216:  CLRF   x3B
0218:  MOVLW  17
021A:  MOVWF  x3A
021C:  MOVLB  0
021E:  RCALL  00B8
0220:  MOVFF  01,700
0224:  MOVLW  04
0226:  MOVLB  7
0228:  ADDWF  01,W
022A:  MOVWF  01
022C:  MOVLW  00
022E:  ADDWFC 02,W
0230:  MOVWF  03
0232:  MOVF   01,W
0234:  ADDLW  97
0236:  MOVWF  01
0238:  MOVLW  00
023A:  ADDWFC 03,F
023C:  MOVFF  01,700
0240:  MOVFF  03,701
0244:  CLRF   x39
0246:  MOVFF  40,738
024A:  CLRF   x3B
024C:  MOVLW  17
024E:  MOVWF  x3A
0250:  MOVLB  0
0252:  RCALL  00B8
0254:  MOVFF  01,702
0258:  MOVLW  04
025A:  MOVLB  7
025C:  ADDWF  01,W
025E:  MOVWF  01
0260:  MOVLW  00
0262:  ADDWFC 02,W
0264:  MOVWF  03
0266:  MOVF   01,W
0268:  ADDLW  97
026A:  MOVWF  FE9
026C:  MOVLW  00
026E:  ADDWFC 03,W
0270:  MOVWF  FEA
0272:  MOVFF  FEF,702
0276:  MOVFF  FEC,703
027A:  MOVFF  FEC,704
027E:  MOVFF  FEC,705
0282:  CLRF   x07
0284:  CLRF   00
0286:  CLRF   01
0288:  MOVF   00,W
028A:  IORWF  x02,W
028C:  MOVWF  00
028E:  MOVF   01,W
0290:  IORWF  x03,W
0292:  MOVWF  01
0294:  MOVF   FFF,W
0296:  IORWF  x04,W
0298:  MOVWF  02
029A:  MOVF   x07,W
029C:  IORWF  x05,W
029E:  MOVFF  701,FEA
02A2:  MOVFF  700,FE9
02A6:  MOVFF  00,FEF
02AA:  MOVFF  01,FEC
02AE:  MOVFF  02,FEC
02B2:  MOVWF  FEC
....................     
....................    if(np>1) 
02B4:  MOVF   54,W
02B6:  SUBLW  01
02B8:  BC    0308
....................    {  
....................     
....................   //     if(procesos[colap[0]].prioridad == 1){ 
....................            colap[np] = colap[0]; 
02BA:  CLRF   03
02BC:  MOVF   54,W
02BE:  ADDLW  40
02C0:  MOVWF  FE9
02C2:  MOVLW  00
02C4:  ADDWFC 03,W
02C6:  MOVWF  FEA
02C8:  MOVFF  40,FEF
....................         for(i=0;i<np;i++) 
02CC:  CLRF   55
02CE:  MOVF   54,W
02D0:  SUBWF  55,W
02D2:  BC    0308
....................         { 
....................            colap[i]=colap[i+1]; 
02D4:  CLRF   03
02D6:  MOVF   55,W
02D8:  ADDLW  40
02DA:  MOVWF  01
02DC:  MOVLW  00
02DE:  ADDWFC 03,F
02E0:  MOVFF  03,701
02E4:  MOVLW  01
02E6:  ADDWF  55,W
02E8:  CLRF   03
02EA:  ADDLW  40
02EC:  MOVWF  FE9
02EE:  MOVLW  00
02F0:  ADDWFC 03,W
02F2:  MOVWF  FEA
02F4:  MOVFF  FEF,702
02F8:  MOVFF  701,FEA
02FC:  MOVFF  01,FE9
0300:  MOVFF  702,FEF
0304:  INCF   55,F
0306:  BRA    02CE
....................         } 
....................      // } 
....................    } 
....................    
.................... //==== PC=S0_Init() ======= 
....................    TOSL=0x00; 
0308:  CLRF   FFD
....................    TOSH=0x30; 
030A:  MOVLW  30
030C:  MOVWF  FFE
....................    TOSU=0x00; 
030E:  CLRF   FFF
0310:  BCF    FF2.2
0312:  MOVLB  0
0314:  GOTO   0060
.................... }   
....................  
....................  
....................  
....................  
.................... //================== FUNCIONES METEMATICA DE POTNCIA =========================== 
.................... int32 pot_num(int16 base, int exp){ 
*
03A8:  MOVLB  7
03AA:  CLRF   x29
03AC:  CLRF   x28
03AE:  CLRF   x27
03B0:  MOVLW  01
03B2:  MOVWF  x26
03B4:  CLRF   x2A
....................    int32 pot=1; 
....................    int q=0; 
....................    for (q=0;q<exp;q++) { pot=pot*base;} 
03B6:  CLRF   x2A
03B8:  MOVF   x25,W
03BA:  SUBWF  x2A,W
03BC:  BC    03F4
03BE:  MOVFF  729,72E
03C2:  MOVFF  728,72D
03C6:  MOVFF  727,72C
03CA:  MOVFF  726,72B
03CE:  CLRF   x32
03D0:  CLRF   x31
03D2:  MOVFF  724,730
03D6:  MOVFF  723,72F
03DA:  MOVLB  0
03DC:  RCALL  034C
03DE:  MOVFF  03,729
03E2:  MOVFF  02,728
03E6:  MOVFF  01,727
03EA:  MOVFF  00,726
03EE:  MOVLB  7
03F0:  INCF   x2A,F
03F2:  BRA    03B8
....................    return pot; 
03F4:  MOVFF  726,00
03F8:  MOVFF  727,01
03FC:  MOVFF  728,02
0400:  MOVFF  729,03
0404:  MOVLB  0
0406:  RETURN 0
.................... } 
.................... //============================================================================== 
....................  
.................... void cmd_process(void){ 
....................             char   cmd[size_buffer];         // Comando 
....................             strcpy(cmd,c_buffer);     
*
06FA:  MOVLW  06
06FC:  MOVWF  FEA
06FE:  SETF   FE9
0700:  CLRF   FE2
0702:  MOVLW  18
0704:  MOVWF  FE1
0706:  MOVF   FE7,F
0708:  MOVFF  FE6,FEE
070C:  BNZ   0706
....................             // printf(cmd); 
....................    if(x_buffer == 9 && band_calendario==0) 
070E:  MOVF   17,W
0710:  SUBLW  09
0712:  BTFSS  FD8.2
0714:  BRA    0860
0716:  MOVLB  6
0718:  MOVF   xD9,F
071A:  BTFSC  FD8.2
071C:  BRA    0722
071E:  MOVLB  0
0720:  BRA    0860
....................    { 
....................        for(i = 0;i<6;i++){ name[i] = cmd[i+5]; } 
0722:  CLRF   55
0724:  MOVF   55,W
0726:  SUBLW  05
0728:  BNC   0766
072A:  CLRF   03
072C:  MOVF   55,W
072E:  ADDLW  38
0730:  MOVWF  01
0732:  MOVLW  00
0734:  ADDWFC 03,F
0736:  MOVFF  01,71F
073A:  MOVLB  7
073C:  MOVFF  03,720
0740:  MOVLW  05
0742:  ADDWF  55,W
0744:  CLRF   03
0746:  ADDLW  FF
0748:  MOVWF  FE9
074A:  MOVLW  06
074C:  ADDWFC 03,W
074E:  MOVWF  FEA
0750:  MOVFF  FEF,721
0754:  MOVFF  720,FEA
0758:  MOVFF  01,FE9
075C:  MOVFF  721,FEF
0760:  INCF   55,F
0762:  MOVLB  6
0764:  BRA    0724
....................   
....................        for( i=0; i<5; i++){ 
0766:  CLRF   55
0768:  MOVF   55,W
076A:  SUBLW  04
076C:  BNC   085C
....................          result = result + ((cmd[i])-48)*pot_num(10,(5-i-1))+0.1; 
076E:  CLRF   03
0770:  MOVF   55,W
0772:  ADDLW  FF
0774:  MOVWF  FE9
0776:  MOVLW  06
0778:  ADDWFC 03,W
077A:  MOVWF  FEA
077C:  MOVLW  30
077E:  SUBWF  FEF,W
0780:  MOVLB  7
0782:  MOVWF  x1F
0784:  MOVLW  05
0786:  BSF    FD8.0
0788:  SUBFWB 55,W
078A:  ADDLW  FF
078C:  MOVWF  x20
078E:  CLRF   x24
0790:  MOVLW  0A
0792:  MOVWF  x23
0794:  MOVFF  720,725
0798:  MOVLB  0
079A:  RCALL  03A8
079C:  MOVFF  FEA,721
07A0:  MOVFF  FE9,720
07A4:  MOVLB  7
07A6:  CLRF   x2E
07A8:  CLRF   x2D
07AA:  CLRF   x2C
07AC:  MOVFF  71F,72B
07B0:  MOVFF  03,732
07B4:  MOVFF  02,731
07B8:  MOVFF  01,730
07BC:  MOVFF  00,72F
07C0:  MOVLB  0
07C2:  RCALL  034C
07C4:  MOVFF  721,FEA
07C8:  MOVFF  720,FE9
07CC:  MOVF   00,W
07CE:  ADDWF  5D,W
07D0:  MOVLB  7
07D2:  MOVWF  x1F
07D4:  MOVF   01,W
07D6:  ADDWFC 5E,W
07D8:  MOVWF  x20
07DA:  MOVF   02,W
07DC:  ADDWFC 5F,W
07DE:  MOVWF  x21
07E0:  MOVF   03,W
07E2:  MOVLB  0
07E4:  ADDWFC x60,W
07E6:  MOVLB  7
07E8:  MOVWF  x22
07EA:  MOVWF  x28
07EC:  MOVFF  721,727
07F0:  MOVFF  720,726
07F4:  MOVFF  71F,725
07F8:  MOVLB  0
07FA:  RCALL  0408
07FC:  MOVFF  FEA,724
0800:  MOVFF  FE9,723
0804:  BCF    FD8.1
0806:  MOVFF  03,72A
080A:  MOVFF  02,729
080E:  MOVFF  01,728
0812:  MOVFF  00,727
0816:  MOVLW  CD
0818:  MOVLB  7
081A:  MOVWF  x2E
081C:  MOVLW  CC
081E:  MOVWF  x2D
0820:  MOVLW  4C
0822:  MOVWF  x2C
0824:  MOVLW  7B
0826:  MOVWF  x2B
0828:  MOVLB  0
082A:  RCALL  0440
082C:  MOVFF  724,FEA
0830:  MOVFF  723,FE9
0834:  MOVFF  03,72A
0838:  MOVFF  02,729
083C:  MOVFF  01,728
0840:  MOVFF  00,727
0844:  RCALL  06B8
0846:  MOVFF  03,60
084A:  MOVFF  02,5F
084E:  MOVFF  01,5E
0852:  MOVFF  00,5D
0856:  INCF   55,F
0858:  MOVLB  6
085A:  BRA    0768
....................        } 
....................      
....................    }  
085C:  BRA    0954
085E:  MOVLB  0
....................    else { 
....................          
....................        for( i=0; i<x_buffer; i++){ 
0860:  CLRF   55
0862:  MOVF   17,W
0864:  SUBWF  55,W
0866:  BC    0952
....................             result = result + ((cmd[i])-48)*pot_num(10,(x_buffer-i-1))+0.1; 
0868:  CLRF   03
086A:  MOVF   55,W
086C:  ADDLW  FF
086E:  MOVWF  FE9
0870:  MOVLW  06
0872:  ADDWFC 03,W
0874:  MOVWF  FEA
0876:  MOVLW  30
0878:  SUBWF  FEF,W
087A:  MOVLB  7
087C:  MOVWF  x1F
087E:  MOVF   55,W
0880:  SUBWF  17,W
0882:  ADDLW  FF
0884:  MOVWF  x20
0886:  CLRF   x24
0888:  MOVLW  0A
088A:  MOVWF  x23
088C:  MOVFF  720,725
0890:  MOVLB  0
0892:  RCALL  03A8
0894:  MOVFF  FEA,721
0898:  MOVFF  FE9,720
089C:  MOVLB  7
089E:  CLRF   x2E
08A0:  CLRF   x2D
08A2:  CLRF   x2C
08A4:  MOVFF  71F,72B
08A8:  MOVFF  03,732
08AC:  MOVFF  02,731
08B0:  MOVFF  01,730
08B4:  MOVFF  00,72F
08B8:  MOVLB  0
08BA:  RCALL  034C
08BC:  MOVFF  721,FEA
08C0:  MOVFF  720,FE9
08C4:  MOVF   00,W
08C6:  ADDWF  5D,W
08C8:  MOVLB  7
08CA:  MOVWF  x1F
08CC:  MOVF   01,W
08CE:  ADDWFC 5E,W
08D0:  MOVWF  x20
08D2:  MOVF   02,W
08D4:  ADDWFC 5F,W
08D6:  MOVWF  x21
08D8:  MOVF   03,W
08DA:  MOVLB  0
08DC:  ADDWFC x60,W
08DE:  MOVLB  7
08E0:  MOVWF  x22
08E2:  MOVWF  x28
08E4:  MOVFF  721,727
08E8:  MOVFF  720,726
08EC:  MOVFF  71F,725
08F0:  MOVLB  0
08F2:  RCALL  0408
08F4:  MOVFF  FEA,724
08F8:  MOVFF  FE9,723
08FC:  BCF    FD8.1
08FE:  MOVFF  03,72A
0902:  MOVFF  02,729
0906:  MOVFF  01,728
090A:  MOVFF  00,727
090E:  MOVLW  CD
0910:  MOVLB  7
0912:  MOVWF  x2E
0914:  MOVLW  CC
0916:  MOVWF  x2D
0918:  MOVLW  4C
091A:  MOVWF  x2C
091C:  MOVLW  7B
091E:  MOVWF  x2B
0920:  MOVLB  0
0922:  RCALL  0440
0924:  MOVFF  724,FEA
0928:  MOVFF  723,FE9
092C:  MOVFF  03,72A
0930:  MOVFF  02,729
0934:  MOVFF  01,728
0938:  MOVFF  00,727
093C:  RCALL  06B8
093E:  MOVFF  03,60
0942:  MOVFF  02,5F
0946:  MOVFF  01,5E
094A:  MOVFF  00,5D
094E:  INCF   55,F
0950:  BRA    0862
0952:  MOVLB  6
....................        } 
....................           
....................    }   
....................     
....................   cmd =""; 
0954:  MOVLW  06
0956:  MOVWF  FEA
0958:  SETF   FE9
095A:  MOVFF  FF2,71F
095E:  BCF    FF2.7
0960:  MOVLW  00
0962:  MOVLB  0
0964:  CALL   00A2
0968:  TBLRD*-
096A:  TBLRD*+
096C:  MOVF   FF5,W
096E:  MOVWF  FEE
0970:  IORLW  00
0972:  BNZ   096A
0974:  MOVLB  7
0976:  BTFSC  x1F.7
0978:  BSF    FF2.7
....................   x_buffer=0x00;  // Borro buffer. 
097A:  CLRF   17
....................     
....................    if ( band_calendario == 1 ) 
097C:  MOVLB  6
097E:  DECFSZ xD9,W
0980:  BRA    09A4
....................    { 
....................       calendario[ind_cal] = result; 
0982:  MOVLW  C2
0984:  ADDWF  xDB,W
0986:  MOVWF  FE9
0988:  MOVLW  01
098A:  ADDWFC xDC,W
098C:  MOVWF  FEA
098E:  MOVFF  5D,FEF
....................       //  printf("%u ",result); 
....................       ind_cal++; 
0992:  INCF   xDB,F
0994:  BTFSC  FD8.2
0996:  INCF   xDC,F
....................       result=0; 
0998:  MOVLB  0
099A:  CLRF   x60
099C:  CLRF   5F
099E:  CLRF   5E
09A0:  CLRF   5D
09A2:  MOVLB  6
....................    } 
09A4:  MOVLB  0
09A6:  GOTO   09CE (RETURN)
....................     
....................  } 
....................  
....................  
.................... void aux(char c) 
.................... { 
....................    switch(c) 
*
0318:  MOVLB  6
031A:  MOVF   xFE,W
031C:  XORLW  43
031E:  MOVLB  0
0320:  BZ    0328
0322:  XORLW  05
0324:  BZ    0336
0326:  BRA    0348
....................    { 
....................   case 'C': 
....................      band_calendario=1; 
0328:  MOVLW  01
032A:  MOVLB  6
032C:  MOVWF  xD9
....................      mcm=0; 
032E:  CLRF   xDE
0330:  CLRF   xDD
....................      break; 
0332:  MOVLB  0
0334:  BRA    0348
....................    case 'F': 
....................      band_calendario=0; 
0336:  MOVLB  6
0338:  CLRF   xD9
....................      mcm = ind_cal; 
033A:  MOVFF  6DC,6DE
033E:  MOVFF  6DB,6DD
....................     //  printf("%Lu",mcm); 
....................      ind_cal=0; 
0342:  CLRF   xDC
0344:  CLRF   xDB
....................      break; 
0346:  MOVLB  0
....................    } 
0348:  GOTO   0A00 (RETURN)
.................... } 
....................  
....................  
.................... void add_to_buffer(char c){ 
....................    switch(c){ 
*
09AA:  MOVLB  6
09AC:  MOVF   xFE,W
09AE:  XORLW  57
09B0:  MOVLB  0
09B2:  BZ    09B6
09B4:  BRA    09BA
....................       case 'W':     // Enter -> Habilita Flag para procesar comando 
....................           cmd_process(); 
09B6:  BRA    06FA
....................       break; 
09B8:  BRA    09CE
....................       default:      // Añade caracter recibido al Buffer 
....................            c_buffer[x_buffer++]=c; 
09BA:  MOVF   17,W
09BC:  INCF   17,F
09BE:  CLRF   03
09C0:  ADDLW  18
09C2:  MOVWF  FE9
09C4:  MOVLW  00
09C6:  ADDWFC 03,W
09C8:  MOVWF  FEA
09CA:  MOVFF  6FE,FEF
....................       break; 
....................    } 
09CE:  GOTO   0A00 (RETURN)
.................... } 
....................  
.................... // =================== INTERRUPCION SERIAL PARA RECIVIR LAS DIRECCIONES DE INICIO ======================= 
.................... #INT_RDA     
.................... void Data_Received(){ 
09D2:  MOVLB  6
09D4:  CLRF   xFD
....................     char  data_r = 0x00;  
....................           data_r = getc(); 
09D6:  BTFSS  F9E.5
09D8:  BRA    09D6
09DA:  MOVFF  FAE,6FD
....................            
....................    if ( data_r == 'C' || data_r == 'F') 
09DE:  MOVF   xFD,W
09E0:  SUBLW  43
09E2:  BZ    09EA
09E4:  MOVF   xFD,W
09E6:  SUBLW  46
09E8:  BNZ   09F8
....................        aux(data_r); 
09EA:  MOVFF  6FD,6FE
09EE:  MOVLB  0
09F0:  BRA    0318
09F2:  MOVLB  0
09F4:  BRA    0A00
09F6:  MOVLB  6
....................    else     
....................        add_to_buffer(data_r); 
09F8:  MOVFF  6FD,6FE
09FC:  MOVLB  0
09FE:  BRA    09AA
....................            
.................... } 
....................  
....................  
....................  
.................... //*********************************************************************** 
.................... //======================== Parpadearled B0 ==================================== 
0A00:  BCF    F9E.5
0A02:  GOTO   0060
.................... #ORG 0x1000, 0x1044 
.................... void Parpadear_B0()   // 4096 
.................... { 
....................    while(TRUE) 
....................    { 
....................       output_bit(PIN_B0,1); 
*
1000:  BSF    F8A.0
1002:  BCF    F93.0
....................       for (k1=1;k1<170;++k1){for (l1=1;l1<170;++l1){}} 
1004:  MOVLW  01
1006:  MOVWF  x8A
1008:  MOVF   x8A,W
100A:  SUBLW  A9
100C:  BNC   1020
100E:  MOVLW  01
1010:  MOVWF  x90
1012:  MOVF   x90,W
1014:  SUBLW  A9
1016:  BNC   101C
1018:  INCF   x90,F
101A:  BRA    1012
101C:  INCF   x8A,F
101E:  BRA    1008
....................       // for (k1=1;k1<50;++k1){for (l1=1;l1<50;++l1){}} 
....................       output_bit(PIN_B0,0); 
1020:  BCF    F8A.0
1022:  BCF    F93.0
....................       for (k1=1;k1<170;++k1){for (l1=1;l1<170;++l1){}}     
1024:  MOVLW  01
1026:  MOVWF  x8A
1028:  MOVF   x8A,W
102A:  SUBLW  A9
102C:  BNC   1040
102E:  MOVLW  01
1030:  MOVWF  x90
1032:  MOVF   x90,W
1034:  SUBLW  A9
1036:  BNC   103C
1038:  INCF   x90,F
103A:  BRA    1032
103C:  INCF   x8A,F
103E:  BRA    1028
1040:  BRA    1000
....................       //for (k1=1;k1<50;++k1){for (l1=1;l1<50;++l1){}} 
....................    } 
1042:  RETURN 0
.................... } 
....................   
.................... //========================= Parpadear led B1 =================================== 
.................... #ORG 0x1046, 0x1090    // 4166 
.................... void Parpadear_B1() 
.................... { 
....................    while(TRUE) 
....................    { 
....................          output_bit(PIN_B1,0); 
*
1046:  BCF    F8A.1
1048:  BCF    F93.1
....................          for (k2=1;k2<170;++k2){for (l2=1;l2<170;++l2){}} 
104A:  MOVLW  01
104C:  MOVWF  x8B
104E:  MOVF   x8B,W
1050:  SUBLW  A9
1052:  BNC   1066
1054:  MOVLW  01
1056:  MOVWF  x91
1058:  MOVF   x91,W
105A:  SUBLW  A9
105C:  BNC   1062
105E:  INCF   x91,F
1060:  BRA    1058
1062:  INCF   x8B,F
1064:  BRA    104E
....................          output_bit(PIN_B1,1); 
1066:  BSF    F8A.1
1068:  BCF    F93.1
....................          for (k2=1;k2<170;++k2){for (l2=1;l2<170;++l2){}}     
106A:  MOVLW  01
106C:  MOVWF  x8B
106E:  MOVF   x8B,W
1070:  SUBLW  A9
1072:  BNC   1086
1074:  MOVLW  01
1076:  MOVWF  x91
1078:  MOVF   x91,W
107A:  SUBLW  A9
107C:  BNC   1082
107E:  INCF   x91,F
1080:  BRA    1078
1082:  INCF   x8B,F
1084:  BRA    106E
1086:  BRA    1046
....................    } 
1088:  RETURN 0
.................... } 
....................  
.................... //============================ Parpadear led B2 ================================ 
.................... #ORG 0x1092, 0x10D6     // 4242 
.................... void Parpadear_B2() 
.................... { 
....................    while(TRUE) 
....................    { output_bit(PIN_B2,0); 
*
1092:  BCF    F8A.2
1094:  BCF    F93.2
....................          for (k3=1;k3<200;++k3){for (l3=1;l3<200;++l3){}} 
1096:  MOVLW  01
1098:  MOVWF  x8C
109A:  MOVF   x8C,W
109C:  SUBLW  C7
109E:  BNC   10B2
10A0:  MOVLW  01
10A2:  MOVWF  x92
10A4:  MOVF   x92,W
10A6:  SUBLW  C7
10A8:  BNC   10AE
10AA:  INCF   x92,F
10AC:  BRA    10A4
10AE:  INCF   x8C,F
10B0:  BRA    109A
....................          output_bit(PIN_B2,1); 
10B2:  BSF    F8A.2
10B4:  BCF    F93.2
....................          for (k3=1;k3<200;++k3){for (l3=1;l3<200;++l3){}}     
10B6:  MOVLW  01
10B8:  MOVWF  x8C
10BA:  MOVF   x8C,W
10BC:  SUBLW  C7
10BE:  BNC   10D2
10C0:  MOVLW  01
10C2:  MOVWF  x92
10C4:  MOVF   x92,W
10C6:  SUBLW  C7
10C8:  BNC   10CE
10CA:  INCF   x92,F
10CC:  BRA    10C4
10CE:  INCF   x8C,F
10D0:  BRA    10BA
10D2:  BRA    1092
....................    } 
10D4:  RETURN 0
.................... } 
....................  
.................... //============================= Parpadear led B3 =============================== 
.................... #ORG 0x10D8, 0x111C     // 4312 
.................... void Parpadear_B3() 
.................... { 
....................    while(TRUE) 
....................    { output_bit(PIN_B3,0); 
*
10D8:  BCF    F8A.3
10DA:  BCF    F93.3
....................          for (k4=1;k4<200;++k4){for (l4=1;l4<200;++l4){}} 
10DC:  MOVLW  01
10DE:  MOVWF  x8D
10E0:  MOVF   x8D,W
10E2:  SUBLW  C7
10E4:  BNC   10F8
10E6:  MOVLW  01
10E8:  MOVWF  x93
10EA:  MOVF   x93,W
10EC:  SUBLW  C7
10EE:  BNC   10F4
10F0:  INCF   x93,F
10F2:  BRA    10EA
10F4:  INCF   x8D,F
10F6:  BRA    10E0
....................          output_bit(PIN_B3,1); 
10F8:  BSF    F8A.3
10FA:  BCF    F93.3
....................          for (k4=1;k4<200;++k4){for (l4=1;l4<200;++l4){}}     
10FC:  MOVLW  01
10FE:  MOVWF  x8D
1100:  MOVF   x8D,W
1102:  SUBLW  C7
1104:  BNC   1118
1106:  MOVLW  01
1108:  MOVWF  x93
110A:  MOVF   x93,W
110C:  SUBLW  C7
110E:  BNC   1114
1110:  INCF   x93,F
1112:  BRA    110A
1114:  INCF   x8D,F
1116:  BRA    1100
1118:  BRA    10D8
....................    } 
111A:  RETURN 0
.................... } 
....................  
.................... //===================== Parpadear led B4 "FINITO" ============================== 
.................... /*#ORG 0x111E, 0x11F4      // 4382  
.................... void Parpadear_B4() 
.................... { 
....................    for ( ii=0; ii<50; ii++) 
....................    { 
....................          output_bit(PIN_B4,1); 
....................          for (k5=1;k5<200;++k5){for (l5=1;l5<200;++l5){}} 
....................          output_bit(PIN_B4,0); 
....................          for (k5=1;k5<200;++k5){for (l5=1;l5<200;++l5){}}     
....................    } 
....................     
....................    fin_quantum(); 
....................    procesos[colap[0]].estado =0; 
....................    for (i = 0;i<np;i++){ 
....................    colap[i]=colap[i+1];} 
....................    np--; 
....................    goto_address(0x3000); 
.................... } 
....................  
.................... //===================== Parpadear led B5 "FINITO" ============================== 
.................... #ORG 0x11F6, 0x12CC      // 4598 
.................... void Parpadear_B5() 
.................... { 
....................    for ( ii1=0; ii1<50; ii1++) 
....................    { 
....................          output_bit(PIN_B5,1); 
....................          for (k6=1;k6<200;++k6){for (l6=1;l6<200;++l6){}} 
....................          output_bit(PIN_B5,0); 
....................          for (k6=1;k6<200;++k6){for (l6=1;l6<200;++l6){}}     
....................    } 
....................     
....................    fin_quantum(); 
....................    procesos[colap[0]].estado =0; 
....................    for (i = 0;i<np;i++){ 
....................    colap[i]=colap[i+1];} 
....................    np--; 
....................    goto_address(0x3000); 
.................... } 
.................... */ 
.................... /* 
....................  
.................... //========================== Leer ADC ========================================== 
....................  
.................... #ORG 0x12CE, 0x13F2     // 4814 
.................... void leer_ADC() 
.................... {  setup_adc_ports(0|vss_vdd); 
....................    setup_adc(adc_clock_internal); 
....................    while(1) 
....................    { 
....................       set_adc_channel(0); 
....................       delay_us(40); 
....................       value1=Read_ADC(); 
....................       value = 5*(value1); 
....................       value = value/1023.0; 
....................       printf(lcd_putc,"\n Voltage=   %f",value); 
....................       delay_ms(500); 
....................    } 
.................... } 
....................  
.................... //================== Contador 7 segmentos==MEMORIA LIBRE ======================= 
....................  
.................... #ORG 0x13F4, 0x1620     // 4896 
.................... void Contador() 
.................... {   
....................    while(1) 
....................    { 
....................       printf("no implementado"); 
....................    } 
.................... } 
....................  
.................... */ 
....................  
.................... //==============================================================================    
.................... //======================== PROCESOS DEL CALENDARIO ============================= 
.................... //============================================================================== 
.................... #ORG 0x5000, 0x50FF 
.................... void proceso_1() 
.................... { 
....................    for ( ii1=0; ii1<2; ii1++) 
*
5000:  CLRF   57
5002:  MOVF   57,W
5004:  SUBLW  01
5006:  BNC   504C
....................    { 
....................       output_bit(PIN_A1,1); 
5008:  BSF    F89.1
500A:  BCF    F92.1
....................       for (h1=1;h1<50;++h1){for (f1=1;f1<50;++f1){}} 
500C:  MOVLW  01
500E:  MOVWF  x61
5010:  MOVF   x61,W
5012:  SUBLW  31
5014:  BNC   5028
5016:  MOVLW  01
5018:  MOVWF  x66
501A:  MOVF   x66,W
501C:  SUBLW  31
501E:  BNC   5024
5020:  INCF   x66,F
5022:  BRA    501A
5024:  INCF   x61,F
5026:  BRA    5010
....................       output_bit(PIN_A1,0); 
5028:  BCF    F89.1
502A:  BCF    F92.1
....................       for (h1=1;h1<50;++h1){for (f1=1;f1<50;++f1){}}   
502C:  MOVLW  01
502E:  MOVWF  x61
5030:  MOVF   x61,W
5032:  SUBLW  31
5034:  BNC   5048
5036:  MOVLW  01
5038:  MOVWF  x66
503A:  MOVF   x66,W
503C:  SUBLW  31
503E:  BNC   5044
5040:  INCF   x66,F
5042:  BRA    503A
5044:  INCF   x61,F
5046:  BRA    5030
5048:  INCF   57,F
504A:  BRA    5002
....................           
....................    } 
....................    fin_quantum(); 
504C:  CALL   00B4
5050:  CLRF   16
5052:  BTFSC  FF2.7
5054:  BSF    16.7
5056:  BCF    FF2.7
....................    procesos[colap[0]].estado =0; 
5058:  MOVLB  7
505A:  CLRF   x39
505C:  MOVFF  40,738
5060:  CLRF   x3B
5062:  MOVLW  17
5064:  MOVWF  x3A
5066:  MOVLB  0
5068:  CALL   00B8
506C:  BTFSC  16.7
506E:  BSF    FF2.7
5070:  MOVFF  01,737
5074:  MOVLW  08
5076:  MOVLB  7
5078:  ADDWF  01,W
507A:  MOVWF  01
507C:  MOVLW  00
507E:  ADDWFC 02,W
5080:  MOVWF  03
5082:  MOVF   01,W
5084:  ADDLW  97
5086:  MOVWF  FE9
5088:  MOVLW  00
508A:  ADDWFC 03,W
508C:  MOVWF  FEA
508E:  CLRF   FEF
....................    for (i = 0;i<np;i++){ 
5090:  CLRF   55
5092:  MOVF   54,W
5094:  SUBWF  55,W
5096:  BC    50D0
....................    colap[i]=colap[i+1];} 
5098:  CLRF   03
509A:  MOVF   55,W
509C:  ADDLW  40
509E:  MOVWF  01
50A0:  MOVLW  00
50A2:  ADDWFC 03,F
50A4:  MOVFF  01,737
50A8:  MOVFF  03,738
50AC:  MOVLW  01
50AE:  ADDWF  55,W
50B0:  CLRF   03
50B2:  ADDLW  40
50B4:  MOVWF  FE9
50B6:  MOVLW  00
50B8:  ADDWFC 03,W
50BA:  MOVWF  FEA
50BC:  MOVFF  FEF,739
50C0:  MOVFF  738,FEA
50C4:  MOVFF  01,FE9
50C8:  MOVFF  739,FEF
50CC:  INCF   55,F
50CE:  BRA    5092
....................    np--; 
50D0:  DECF   54,F
....................    goto_address(0x3000); 
50D2:  MOVLB  0
50D4:  GOTO   3000
50D8:  RETURN 0
.................... } 
....................  
....................  
.................... #ORG 0x5100, 0x51EE 
.................... void proceso_2() 
.................... { 
....................    for ( ii2=0; ii2<3; ii2++) 
*
5100:  CLRF   58
5102:  MOVF   58,W
5104:  SUBLW  02
5106:  BNC   514C
....................    { 
....................          output_bit(PIN_A2,1); 
5108:  BSF    F89.2
510A:  BCF    F92.2
....................          for (h2=1;h2<50;++h2){for (f2=1;f2<50;++f2){}} 
510C:  MOVLW  01
510E:  MOVWF  x62
5110:  MOVF   x62,W
5112:  SUBLW  31
5114:  BNC   5128
5116:  MOVLW  01
5118:  MOVWF  x67
511A:  MOVF   x67,W
511C:  SUBLW  31
511E:  BNC   5124
5120:  INCF   x67,F
5122:  BRA    511A
5124:  INCF   x62,F
5126:  BRA    5110
....................          output_bit(PIN_A2,0); 
5128:  BCF    F89.2
512A:  BCF    F92.2
....................          for (h2=1;h2<50;++h2){for (f2=1;f2<50;++f2){}}     
512C:  MOVLW  01
512E:  MOVWF  x62
5130:  MOVF   x62,W
5132:  SUBLW  31
5134:  BNC   5148
5136:  MOVLW  01
5138:  MOVWF  x67
513A:  MOVF   x67,W
513C:  SUBLW  31
513E:  BNC   5144
5140:  INCF   x67,F
5142:  BRA    513A
5144:  INCF   x62,F
5146:  BRA    5130
5148:  INCF   58,F
514A:  BRA    5102
....................    } 
....................     
....................    fin_quantum(); 
514C:  CALL   00B4
5150:  CLRF   16
5152:  BTFSC  FF2.7
5154:  BSF    16.7
5156:  BCF    FF2.7
....................    procesos[colap[0]].estado =0; 
5158:  MOVLB  7
515A:  CLRF   x39
515C:  MOVFF  40,738
5160:  CLRF   x3B
5162:  MOVLW  17
5164:  MOVWF  x3A
5166:  MOVLB  0
5168:  CALL   00B8
516C:  BTFSC  16.7
516E:  BSF    FF2.7
5170:  MOVFF  01,737
5174:  MOVLW  08
5176:  MOVLB  7
5178:  ADDWF  01,W
517A:  MOVWF  01
517C:  MOVLW  00
517E:  ADDWFC 02,W
5180:  MOVWF  03
5182:  MOVF   01,W
5184:  ADDLW  97
5186:  MOVWF  FE9
5188:  MOVLW  00
518A:  ADDWFC 03,W
518C:  MOVWF  FEA
518E:  CLRF   FEF
....................    for (i = 0;i<np;i++){ 
5190:  CLRF   55
5192:  MOVF   54,W
5194:  SUBWF  55,W
5196:  BC    51D0
....................    colap[i]=colap[i+1];} 
5198:  CLRF   03
519A:  MOVF   55,W
519C:  ADDLW  40
519E:  MOVWF  01
51A0:  MOVLW  00
51A2:  ADDWFC 03,F
51A4:  MOVFF  01,737
51A8:  MOVFF  03,738
51AC:  MOVLW  01
51AE:  ADDWF  55,W
51B0:  CLRF   03
51B2:  ADDLW  40
51B4:  MOVWF  FE9
51B6:  MOVLW  00
51B8:  ADDWFC 03,W
51BA:  MOVWF  FEA
51BC:  MOVFF  FEF,739
51C0:  MOVFF  738,FEA
51C4:  MOVFF  01,FE9
51C8:  MOVFF  739,FEF
51CC:  INCF   55,F
51CE:  BRA    5192
....................    np--; 
51D0:  DECF   54,F
....................    goto_address(0x3000); 
51D2:  MOVLB  0
51D4:  GOTO   3000
51D8:  RETURN 0
.................... } 
....................  
....................  
.................... #ORG 0x5200, 0x52EE 
.................... void proceso_3() 
.................... { 
....................    for ( ii3=0; ii3<15; ii3++) 
*
5200:  CLRF   59
5202:  MOVF   59,W
5204:  SUBLW  0E
5206:  BNC   524C
....................    { 
....................          output_bit(PIN_A3,1); 
5208:  BSF    F89.3
520A:  BCF    F92.3
....................          for (h3=1;h3<50;++h3){for (f3=1;f3<70;++f3){}} 
520C:  MOVLW  01
520E:  MOVWF  x63
5210:  MOVF   x63,W
5212:  SUBLW  31
5214:  BNC   5228
5216:  MOVLW  01
5218:  MOVWF  x68
521A:  MOVF   x68,W
521C:  SUBLW  45
521E:  BNC   5224
5220:  INCF   x68,F
5222:  BRA    521A
5224:  INCF   x63,F
5226:  BRA    5210
....................          output_bit(PIN_A3,0); 
5228:  BCF    F89.3
522A:  BCF    F92.3
....................          for (h3=1;h3<50;++h3){for (f3=1;f3<70;++f3){}}     
522C:  MOVLW  01
522E:  MOVWF  x63
5230:  MOVF   x63,W
5232:  SUBLW  31
5234:  BNC   5248
5236:  MOVLW  01
5238:  MOVWF  x68
523A:  MOVF   x68,W
523C:  SUBLW  45
523E:  BNC   5244
5240:  INCF   x68,F
5242:  BRA    523A
5244:  INCF   x63,F
5246:  BRA    5230
5248:  INCF   59,F
524A:  BRA    5202
....................    } 
....................     
....................    fin_quantum(); 
524C:  CALL   00B4
5250:  CLRF   16
5252:  BTFSC  FF2.7
5254:  BSF    16.7
5256:  BCF    FF2.7
....................    procesos[colap[0]].estado =0; 
5258:  MOVLB  7
525A:  CLRF   x39
525C:  MOVFF  40,738
5260:  CLRF   x3B
5262:  MOVLW  17
5264:  MOVWF  x3A
5266:  MOVLB  0
5268:  CALL   00B8
526C:  BTFSC  16.7
526E:  BSF    FF2.7
5270:  MOVFF  01,737
5274:  MOVLW  08
5276:  MOVLB  7
5278:  ADDWF  01,W
527A:  MOVWF  01
527C:  MOVLW  00
527E:  ADDWFC 02,W
5280:  MOVWF  03
5282:  MOVF   01,W
5284:  ADDLW  97
5286:  MOVWF  FE9
5288:  MOVLW  00
528A:  ADDWFC 03,W
528C:  MOVWF  FEA
528E:  CLRF   FEF
....................    for (i = 0;i<np;i++){ 
5290:  CLRF   55
5292:  MOVF   54,W
5294:  SUBWF  55,W
5296:  BC    52D0
....................    colap[i]=colap[i+1];} 
5298:  CLRF   03
529A:  MOVF   55,W
529C:  ADDLW  40
529E:  MOVWF  01
52A0:  MOVLW  00
52A2:  ADDWFC 03,F
52A4:  MOVFF  01,737
52A8:  MOVFF  03,738
52AC:  MOVLW  01
52AE:  ADDWF  55,W
52B0:  CLRF   03
52B2:  ADDLW  40
52B4:  MOVWF  FE9
52B6:  MOVLW  00
52B8:  ADDWFC 03,W
52BA:  MOVWF  FEA
52BC:  MOVFF  FEF,739
52C0:  MOVFF  738,FEA
52C4:  MOVFF  01,FE9
52C8:  MOVFF  739,FEF
52CC:  INCF   55,F
52CE:  BRA    5292
....................    np--; 
52D0:  DECF   54,F
....................    goto_address(0x3000); 
52D2:  MOVLB  0
52D4:  GOTO   3000
52D8:  RETURN 0
.................... } 
....................  
.................... #ORG 0x5300, 0x53EE 
.................... void proceso_4() 
.................... { 
....................    for ( ii4=0; ii4<20; ii4++) 
*
5300:  CLRF   5A
5302:  MOVF   5A,W
5304:  SUBLW  13
5306:  BNC   534C
....................    { 
....................          output_bit(PIN_A4,1); 
5308:  BSF    F89.4
530A:  BCF    F92.4
....................          for (h4=1;h4<50;++h4){for (f4=1;f4<80;++f4){}} 
530C:  MOVLW  01
530E:  MOVWF  x64
5310:  MOVF   x64,W
5312:  SUBLW  31
5314:  BNC   5328
5316:  MOVLW  01
5318:  MOVWF  x69
531A:  MOVF   x69,W
531C:  SUBLW  4F
531E:  BNC   5324
5320:  INCF   x69,F
5322:  BRA    531A
5324:  INCF   x64,F
5326:  BRA    5310
....................          output_bit(PIN_A4,0); 
5328:  BCF    F89.4
532A:  BCF    F92.4
....................          for (h4=1;h4<50;++h4){for (f4=1;f4<80;++f4){}}     
532C:  MOVLW  01
532E:  MOVWF  x64
5330:  MOVF   x64,W
5332:  SUBLW  31
5334:  BNC   5348
5336:  MOVLW  01
5338:  MOVWF  x69
533A:  MOVF   x69,W
533C:  SUBLW  4F
533E:  BNC   5344
5340:  INCF   x69,F
5342:  BRA    533A
5344:  INCF   x64,F
5346:  BRA    5330
5348:  INCF   5A,F
534A:  BRA    5302
....................    } 
....................     
....................    fin_quantum(); 
534C:  CALL   00B4
5350:  CLRF   16
5352:  BTFSC  FF2.7
5354:  BSF    16.7
5356:  BCF    FF2.7
....................    procesos[colap[0]].estado =0; 
5358:  MOVLB  7
535A:  CLRF   x39
535C:  MOVFF  40,738
5360:  CLRF   x3B
5362:  MOVLW  17
5364:  MOVWF  x3A
5366:  MOVLB  0
5368:  CALL   00B8
536C:  BTFSC  16.7
536E:  BSF    FF2.7
5370:  MOVFF  01,737
5374:  MOVLW  08
5376:  MOVLB  7
5378:  ADDWF  01,W
537A:  MOVWF  01
537C:  MOVLW  00
537E:  ADDWFC 02,W
5380:  MOVWF  03
5382:  MOVF   01,W
5384:  ADDLW  97
5386:  MOVWF  FE9
5388:  MOVLW  00
538A:  ADDWFC 03,W
538C:  MOVWF  FEA
538E:  CLRF   FEF
....................    for (i = 0;i<np;i++){ 
5390:  CLRF   55
5392:  MOVF   54,W
5394:  SUBWF  55,W
5396:  BC    53D0
....................    colap[i]=colap[i+1];} 
5398:  CLRF   03
539A:  MOVF   55,W
539C:  ADDLW  40
539E:  MOVWF  01
53A0:  MOVLW  00
53A2:  ADDWFC 03,F
53A4:  MOVFF  01,737
53A8:  MOVFF  03,738
53AC:  MOVLW  01
53AE:  ADDWF  55,W
53B0:  CLRF   03
53B2:  ADDLW  40
53B4:  MOVWF  FE9
53B6:  MOVLW  00
53B8:  ADDWFC 03,W
53BA:  MOVWF  FEA
53BC:  MOVFF  FEF,739
53C0:  MOVFF  738,FEA
53C4:  MOVFF  01,FE9
53C8:  MOVFF  739,FEF
53CC:  INCF   55,F
53CE:  BRA    5392
....................    np--; 
53D0:  DECF   54,F
....................    goto_address(0x3000); 
53D2:  MOVLB  0
53D4:  GOTO   3000
53D8:  RETURN 0
.................... } 
....................  
.................... #ORG 0x5400, 0x54EE 
.................... void proceso_5() 
.................... { 
....................    for ( ii5=0; ii5<23; ii5++) 
*
5400:  CLRF   5B
5402:  MOVF   5B,W
5404:  SUBLW  16
5406:  BNC   544C
....................    { 
....................          output_bit(PIN_A5,1); 
5408:  BSF    F89.5
540A:  BCF    F92.5
....................          for (h5=1;h5<50;++h5){for (f5=1;f5<50;++f5){}} 
540C:  MOVLW  01
540E:  MOVWF  x65
5410:  MOVF   x65,W
5412:  SUBLW  31
5414:  BNC   5428
5416:  MOVLW  01
5418:  MOVWF  x6A
541A:  MOVF   x6A,W
541C:  SUBLW  31
541E:  BNC   5424
5420:  INCF   x6A,F
5422:  BRA    541A
5424:  INCF   x65,F
5426:  BRA    5410
....................          output_bit(PIN_A5,0); 
5428:  BCF    F89.5
542A:  BCF    F92.5
....................          for (h5=1;h5<50;++h5){for (f5=1;f5<50;++f5){}}     
542C:  MOVLW  01
542E:  MOVWF  x65
5430:  MOVF   x65,W
5432:  SUBLW  31
5434:  BNC   5448
5436:  MOVLW  01
5438:  MOVWF  x6A
543A:  MOVF   x6A,W
543C:  SUBLW  31
543E:  BNC   5444
5440:  INCF   x6A,F
5442:  BRA    543A
5444:  INCF   x65,F
5446:  BRA    5430
5448:  INCF   5B,F
544A:  BRA    5402
....................    } 
....................     
....................    fin_quantum(); 
544C:  CALL   00B4
5450:  CLRF   16
5452:  BTFSC  FF2.7
5454:  BSF    16.7
5456:  BCF    FF2.7
....................    procesos[colap[0]].estado =0; 
5458:  MOVLB  7
545A:  CLRF   x39
545C:  MOVFF  40,738
5460:  CLRF   x3B
5462:  MOVLW  17
5464:  MOVWF  x3A
5466:  MOVLB  0
5468:  CALL   00B8
546C:  BTFSC  16.7
546E:  BSF    FF2.7
5470:  MOVFF  01,737
5474:  MOVLW  08
5476:  MOVLB  7
5478:  ADDWF  01,W
547A:  MOVWF  01
547C:  MOVLW  00
547E:  ADDWFC 02,W
5480:  MOVWF  03
5482:  MOVF   01,W
5484:  ADDLW  97
5486:  MOVWF  FE9
5488:  MOVLW  00
548A:  ADDWFC 03,W
548C:  MOVWF  FEA
548E:  CLRF   FEF
....................    for (i = 0;i<np;i++){ 
5490:  CLRF   55
5492:  MOVF   54,W
5494:  SUBWF  55,W
5496:  BC    54D0
....................    colap[i]=colap[i+1];} 
5498:  CLRF   03
549A:  MOVF   55,W
549C:  ADDLW  40
549E:  MOVWF  01
54A0:  MOVLW  00
54A2:  ADDWFC 03,F
54A4:  MOVFF  01,737
54A8:  MOVFF  03,738
54AC:  MOVLW  01
54AE:  ADDWF  55,W
54B0:  CLRF   03
54B2:  ADDLW  40
54B4:  MOVWF  FE9
54B6:  MOVLW  00
54B8:  ADDWFC 03,W
54BA:  MOVWF  FEA
54BC:  MOVFF  FEF,739
54C0:  MOVFF  738,FEA
54C4:  MOVFF  01,FE9
54C8:  MOVFF  739,FEF
54CC:  INCF   55,F
54CE:  BRA    5492
....................    np--; 
54D0:  DECF   54,F
....................    goto_address(0x3000); 
54D2:  MOVLB  0
54D4:  GOTO   3000
54D8:  RETURN 0
.................... } 
....................  
.................... //============================================================================== 
.................... //============================================================================== 
.................... void Port_Init() 
.................... {   
....................    output_bit(PIN_A0,0); 
*
0A7C:  BCF    F89.0
0A7E:  BCF    F92.0
....................    output_bit(PIN_A1,0); 
0A80:  BCF    F89.1
0A82:  BCF    F92.1
....................    output_bit(PIN_A2,0); 
0A84:  BCF    F89.2
0A86:  BCF    F92.2
....................    output_bit(PIN_A3,0); 
0A88:  BCF    F89.3
0A8A:  BCF    F92.3
....................    output_bit(PIN_B2,0); 
0A8C:  BCF    F8A.2
0A8E:  BCF    F93.2
....................    output_bit(PIN_B3,0); 
0A90:  BCF    F8A.3
0A92:  BCF    F93.3
....................    set_tris_b(0x00);      //  Salidas de los LEDS 
0A94:  MOVLW  00
0A96:  MOVWF  F93
....................    set_tris_d(0x00);      //  Salidas del LCD 
0A98:  MOVWF  F95
....................    set_tris_a(0x00);      //  todas salidas LEDS 
0A9A:  MOVWF  F92
0A9C:  GOTO   0E82 (RETURN)
....................  
.................... } 
....................  
.................... void interrupt_Init() 
.................... { 
....................    enable_interrupts(GLOBAL);      // habilitacion de las interrupciones globales 
*
0B44:  MOVLW  C0
0B46:  IORWF  FF2,F
....................    enable_interrupts(INT_RDA);     // habilita interrupcion del serial rs232 
0B48:  BSF    F9D.5
0B4A:  GOTO   0E86 (RETURN)
.................... } 
....................  
.................... void TMR0_Config() 
.................... { 
....................     T0CON=0b10000111; // habilita el enable del timer 0, con un preescalado de 1/256 
0B4E:  MOVLW  87
0B50:  MOVWF  FD5
0B52:  GOTO   0E88 (RETURN)
....................    // T0CON=0b11000111; // preescalado de 1/128 
.................... } 
....................  
.................... void Procesos_Init() 
.................... {   
....................    for(i=0;i<20;i++) 
*
0AA0:  CLRF   55
0AA2:  MOVF   55,W
0AA4:  SUBLW  13
0AA6:  BNC   0B40
0AA8:  CLRF   16
0AAA:  BTFSC  FF2.7
0AAC:  BSF    16.7
0AAE:  BCF    FF2.7
....................    { 
....................       procesos[i].estado=0; 
0AB0:  MOVLB  7
0AB2:  CLRF   x39
0AB4:  MOVFF  55,738
0AB8:  CLRF   x3B
0ABA:  MOVLW  17
0ABC:  MOVWF  x3A
0ABE:  MOVLB  0
0AC0:  CALL   00B8
0AC4:  BTFSC  16.7
0AC6:  BSF    FF2.7
0AC8:  MOVFF  01,6E1
0ACC:  MOVLW  08
0ACE:  MOVLB  6
0AD0:  ADDWF  01,W
0AD2:  MOVWF  01
0AD4:  MOVLW  00
0AD6:  ADDWFC 02,W
0AD8:  MOVWF  03
0ADA:  MOVF   01,W
0ADC:  ADDLW  97
0ADE:  MOVWF  FE9
0AE0:  MOVLW  00
0AE2:  ADDWFC 03,W
0AE4:  MOVWF  FEA
0AE6:  CLRF   FEF
0AE8:  CLRF   16
0AEA:  BTFSC  FF2.7
0AEC:  BSF    16.7
0AEE:  BCF    FF2.7
....................       procesos[i].nombre[4] = ""; 
0AF0:  MOVLB  7
0AF2:  CLRF   x39
0AF4:  MOVFF  55,738
0AF8:  CLRF   x3B
0AFA:  MOVLW  17
0AFC:  MOVWF  x3A
0AFE:  MOVLB  0
0B00:  CALL   00B8
0B04:  BTFSC  16.7
0B06:  BSF    FF2.7
0B08:  MOVFF  02,6E2
0B0C:  MOVFF  01,6E1
0B10:  MOVLW  12
0B12:  MOVLB  6
0B14:  ADDWF  xE1,F
0B16:  MOVLW  00
0B18:  ADDWFC xE2,F
0B1A:  MOVLW  04
0B1C:  ADDWF  xE1,W
0B1E:  MOVWF  01
0B20:  MOVLW  00
0B22:  ADDWFC xE2,W
0B24:  MOVWF  03
0B26:  MOVF   01,W
0B28:  ADDLW  97
0B2A:  MOVWF  01
0B2C:  MOVLW  00
0B2E:  ADDWFC 03,F
0B30:  MOVFF  03,FEA
0B34:  MOVFF  01,FE9
0B38:  CLRF   FEF
0B3A:  INCF   55,F
0B3C:  MOVLB  0
0B3E:  BRA    0AA2
....................    }  //todos los procesos al inicio estan descargados      
0B40:  GOTO   0E84 (RETURN)
.................... } 
....................  
....................  
....................  
.................... //======================= SISTEMA OPERATIVO S.O. ================================= 
.................... #ORG 0x3000, 0x4800 
.................... void SO_Init(){ 
....................    fin_quantum(); 
*
3000:  CALL   00B4
....................    while (1){   
....................            opcion = result%10;  
3004:  BSF    FD8.1
3006:  MOVLW  06
3008:  MOVWF  FEA
300A:  MOVLW  E4
300C:  MOVWF  FE9
300E:  MOVFF  60,6F3
3012:  MOVFF  5F,6F2
3016:  MOVFF  5E,6F1
301A:  MOVFF  5D,6F0
301E:  MOVLB  6
3020:  CLRF   xF7
3022:  CLRF   xF6
3024:  CLRF   xF5
3026:  MOVLW  0A
3028:  MOVWF  xF4
302A:  MOVLB  0
302C:  CALL   0B56
3030:  MOVFF  6E4,7E
....................       switch(opcion){ 
3034:  MOVF   x7E,W
3036:  XORLW  01
3038:  BZ    3078
303A:  XORLW  03
303C:  BTFSC  FD8.2
303E:  BRA    3400
3040:  XORLW  01
3042:  BTFSC  FD8.2
3044:  BRA    35A0
3046:  XORLW  07
3048:  BTFSC  FD8.2
304A:  BRA    35BA
304C:  XORLW  01
304E:  BTFSC  FD8.2
3050:  GOTO   38D2
3054:  XORLW  03
3056:  BTFSC  FD8.2
3058:  GOTO   3B88
305C:  XORLW  01
305E:  BTFSC  FD8.2
3060:  GOTO   3BAA
3064:  XORLW  0F
3066:  BTFSC  FD8.2
3068:  GOTO   3BC0
306C:  XORLW  01
306E:  BTFSC  FD8.2
3070:  GOTO   3C6A
3074:  GOTO   3CAC
....................    
....................             case 1: { 
....................                    dirini = (result-1)/10;    
3078:  MOVLW  01
307A:  SUBWF  5D,W
307C:  MOVLB  6
307E:  MOVWF  xE4
3080:  MOVLW  00
3082:  SUBWFB 5E,W
3084:  MOVWF  xE5
3086:  MOVLW  00
3088:  SUBWFB 5F,W
308A:  MOVWF  xE6
308C:  MOVLW  00
308E:  MOVLB  0
3090:  SUBWFB x60,W
3092:  MOVLB  6
3094:  MOVWF  xE7
3096:  BCF    FD8.1
3098:  MOVWF  xF3
309A:  MOVFF  6E6,6F2
309E:  MOVFF  6E5,6F1
30A2:  MOVFF  6E4,6F0
30A6:  CLRF   xF7
30A8:  CLRF   xF6
30AA:  CLRF   xF5
30AC:  MOVLW  0A
30AE:  MOVWF  xF4
30B0:  MOVLB  0
30B2:  CALL   0B56
30B6:  MOVFF  03,88
30BA:  MOVFF  02,87
30BE:  MOVFF  01,86
30C2:  MOVFF  00,85
....................               for ( i=0; i<np; i++){  
30C6:  CLRF   55
30C8:  MOVF   54,W
30CA:  SUBWF  55,W
30CC:  BC    3158
....................                     if ( procesos[colap[i]].dir_ini == dirini){ flag_1 = 1; break;} 
30CE:  CLRF   03
30D0:  MOVF   55,W
30D2:  ADDLW  40
30D4:  MOVWF  FE9
30D6:  MOVLW  00
30D8:  ADDWFC 03,W
30DA:  MOVWF  FEA
30DC:  CLRF   16
30DE:  BTFSC  FF2.7
30E0:  BSF    16.7
30E2:  BCF    FF2.7
30E4:  MOVLB  7
30E6:  CLRF   x39
30E8:  MOVFF  FEF,738
30EC:  CLRF   x3B
30EE:  MOVLW  17
30F0:  MOVWF  x3A
30F2:  MOVLB  0
30F4:  CALL   00B8
30F8:  BTFSC  16.7
30FA:  BSF    FF2.7
30FC:  MOVFF  02,6E5
3100:  MOVFF  01,6E4
3104:  MOVLW  97
3106:  MOVLB  6
3108:  ADDWF  01,W
310A:  MOVWF  FE9
310C:  MOVLW  00
310E:  ADDWFC 02,W
3110:  MOVWF  FEA
3112:  MOVFF  FEF,6E6
3116:  MOVFF  FEC,6E7
311A:  MOVFF  FEC,6E8
311E:  MOVFF  FEC,6E9
3122:  MOVLB  0
3124:  MOVF   x85,W
3126:  MOVLB  6
3128:  SUBWF  xE6,W
312A:  BNZ   3152
312C:  MOVLB  0
312E:  MOVF   x86,W
3130:  MOVLB  6
3132:  SUBWF  xE7,W
3134:  BNZ   3152
3136:  MOVLB  0
3138:  MOVF   x87,W
313A:  MOVLB  6
313C:  SUBWF  xE8,W
313E:  BNZ   3152
3140:  MOVLB  0
3142:  MOVF   x88,W
3144:  MOVLB  6
3146:  SUBWF  xE9,W
3148:  BNZ   3152
314A:  BSF    xE0.1
314C:  MOVLB  0
314E:  BRA    3158
3150:  MOVLB  6
3152:  INCF   55,F
3154:  MOVLB  0
3156:  BRA    30C8
....................               }     
....................               if(flag_1 == 0){ 
3158:  MOVLB  6
315A:  BTFSC  xE0.1
315C:  BRA    33EA
....................                    np++; 
315E:  INCF   54,F
....................                    busc = np; 
3160:  MOVFF  54,5C
....................                   for ( i=1; i<np; i++){ 
3164:  MOVLW  01
3166:  MOVWF  55
3168:  MOVF   54,W
316A:  SUBWF  55,W
316C:  BC    31BE
316E:  CLRF   16
3170:  BTFSC  FF2.7
3172:  BSF    16.7
3174:  BCF    FF2.7
....................                        if ( procesos[i].estado == 0){ busc = i; break;} 
3176:  MOVLB  7
3178:  CLRF   x39
317A:  MOVFF  55,738
317E:  CLRF   x3B
3180:  MOVLW  17
3182:  MOVWF  x3A
3184:  MOVLB  0
3186:  CALL   00B8
318A:  BTFSC  16.7
318C:  BSF    FF2.7
318E:  MOVFF  02,6E5
3192:  MOVFF  01,6E4
3196:  MOVLW  08
3198:  MOVLB  6
319A:  ADDWF  01,W
319C:  MOVWF  01
319E:  MOVLW  00
31A0:  ADDWFC 02,W
31A2:  MOVWF  03
31A4:  MOVF   01,W
31A6:  ADDLW  97
31A8:  MOVWF  FE9
31AA:  MOVLW  00
31AC:  ADDWFC 03,W
31AE:  MOVWF  FEA
31B0:  MOVF   FEF,F
31B2:  BNZ   31BA
31B4:  MOVFF  55,5C
31B8:  BRA    31BE
31BA:  INCF   55,F
31BC:  BRA    3168
....................                    } 
....................                   printf(dirini);  
31BE:  MOVFF  86,FEA
31C2:  MOVFF  85,FE9
31C6:  MOVLB  0
31C8:  CALL   0BEA
....................                   colap[np-1] = busc ; 
31CC:  MOVLW  01
31CE:  SUBWF  54,W
31D0:  CLRF   03
31D2:  ADDLW  40
31D4:  MOVWF  FE9
31D6:  MOVLW  00
31D8:  ADDWFC 03,W
31DA:  MOVWF  FEA
31DC:  MOVFF  5C,FEF
....................                   procesos[colap[np-1]].dir_ini= dirini; 
31E0:  MOVLW  01
31E2:  SUBWF  54,W
31E4:  CLRF   03
31E6:  ADDLW  40
31E8:  MOVWF  FE9
31EA:  MOVLW  00
31EC:  ADDWFC 03,W
31EE:  MOVWF  FEA
31F0:  CLRF   16
31F2:  BTFSC  FF2.7
31F4:  BSF    16.7
31F6:  BCF    FF2.7
31F8:  MOVLB  7
31FA:  CLRF   x39
31FC:  MOVFF  FEF,738
3200:  CLRF   x3B
3202:  MOVLW  17
3204:  MOVWF  x3A
3206:  MOVLB  0
3208:  CALL   00B8
320C:  BTFSC  16.7
320E:  BSF    FF2.7
3210:  MOVLW  97
3212:  MOVLB  6
3214:  ADDWF  01,W
3216:  MOVWF  FE9
3218:  MOVLW  00
321A:  ADDWFC 02,W
321C:  MOVWF  FEA
321E:  MOVFF  85,FEF
3222:  MOVFF  86,FEC
3226:  MOVFF  87,FEC
322A:  MOVFF  88,FEC
....................                   procesos[colap[np-1]].estado = 1;      // 1=proceso cargado 
322E:  MOVLW  01
3230:  SUBWF  54,W
3232:  CLRF   03
3234:  ADDLW  40
3236:  MOVWF  FE9
3238:  MOVLW  00
323A:  ADDWFC 03,W
323C:  MOVWF  FEA
323E:  CLRF   16
3240:  BTFSC  FF2.7
3242:  BSF    16.7
3244:  BCF    FF2.7
3246:  MOVLB  7
3248:  CLRF   x39
324A:  MOVFF  FEF,738
324E:  CLRF   x3B
3250:  MOVLW  17
3252:  MOVWF  x3A
3254:  MOVLB  0
3256:  CALL   00B8
325A:  BTFSC  16.7
325C:  BSF    FF2.7
325E:  MOVFF  01,6E4
3262:  MOVLW  08
3264:  MOVLB  6
3266:  ADDWF  01,W
3268:  MOVWF  01
326A:  MOVLW  00
326C:  ADDWFC 02,W
326E:  MOVWF  03
3270:  MOVF   01,W
3272:  ADDLW  97
3274:  MOVWF  FE9
3276:  MOVLW  00
3278:  ADDWFC 03,W
327A:  MOVWF  FEA
327C:  MOVLW  01
327E:  MOVWF  FEF
....................                   procesos[colap[np-1]].id = busc ; 
3280:  SUBWF  54,W
3282:  CLRF   03
3284:  ADDLW  40
3286:  MOVWF  FE9
3288:  MOVLW  00
328A:  ADDWFC 03,W
328C:  MOVWF  FEA
328E:  CLRF   16
3290:  BTFSC  FF2.7
3292:  BSF    16.7
3294:  BCF    FF2.7
3296:  MOVLB  7
3298:  CLRF   x39
329A:  MOVFF  FEF,738
329E:  CLRF   x3B
32A0:  MOVLW  17
32A2:  MOVWF  x3A
32A4:  MOVLB  0
32A6:  CALL   00B8
32AA:  BTFSC  16.7
32AC:  BSF    FF2.7
32AE:  MOVFF  01,6E4
32B2:  MOVLW  0C
32B4:  MOVLB  6
32B6:  ADDWF  01,W
32B8:  MOVWF  01
32BA:  MOVLW  00
32BC:  ADDWFC 02,W
32BE:  MOVWF  03
32C0:  MOVF   01,W
32C2:  ADDLW  97
32C4:  MOVWF  FE9
32C6:  MOVLW  00
32C8:  ADDWFC 03,W
32CA:  MOVWF  FEA
32CC:  MOVFF  5C,FEF
....................                   procesos[colap[np-1]].tiem_eje=0; 
32D0:  MOVLW  01
32D2:  SUBWF  54,W
32D4:  CLRF   03
32D6:  ADDLW  40
32D8:  MOVWF  FE9
32DA:  MOVLW  00
32DC:  ADDWFC 03,W
32DE:  MOVWF  FEA
32E0:  CLRF   16
32E2:  BTFSC  FF2.7
32E4:  BSF    16.7
32E6:  BCF    FF2.7
32E8:  MOVLB  7
32EA:  CLRF   x39
32EC:  MOVFF  FEF,738
32F0:  CLRF   x3B
32F2:  MOVLW  17
32F4:  MOVWF  x3A
32F6:  MOVLB  0
32F8:  CALL   00B8
32FC:  BTFSC  16.7
32FE:  BSF    FF2.7
3300:  MOVFF  01,6E4
3304:  MOVLW  0E
3306:  MOVLB  6
3308:  ADDWF  01,W
330A:  MOVWF  01
330C:  MOVLW  00
330E:  ADDWFC 02,W
3310:  MOVWF  03
3312:  MOVF   01,W
3314:  ADDLW  97
3316:  MOVWF  FE9
3318:  MOVLW  00
331A:  ADDWFC 03,W
331C:  MOVWF  FEA
331E:  MOVF   FEE,F
3320:  MOVF   FEE,F
3322:  CLRF   FEC
3324:  MOVF   FED,F
3326:  CLRF   FEF
3328:  MOVF   FED,F
332A:  CLRF   FEF
332C:  MOVF   FED,F
332E:  CLRF   FEF
....................                   procesos[colap[np-1]].prioridad = 1;   
3330:  MOVLW  01
3332:  SUBWF  54,W
3334:  CLRF   03
3336:  ADDLW  40
3338:  MOVWF  FE9
333A:  MOVLW  00
333C:  ADDWFC 03,W
333E:  MOVWF  FEA
3340:  CLRF   16
3342:  BTFSC  FF2.7
3344:  BSF    16.7
3346:  BCF    FF2.7
3348:  MOVLB  7
334A:  CLRF   x39
334C:  MOVFF  FEF,738
3350:  CLRF   x3B
3352:  MOVLW  17
3354:  MOVWF  x3A
3356:  MOVLB  0
3358:  CALL   00B8
335C:  BTFSC  16.7
335E:  BSF    FF2.7
3360:  MOVFF  01,6E4
3364:  MOVLW  0D
3366:  MOVLB  6
3368:  ADDWF  01,W
336A:  MOVWF  01
336C:  MOVLW  00
336E:  ADDWFC 02,W
3370:  MOVWF  03
3372:  MOVF   01,W
3374:  ADDLW  97
3376:  MOVWF  FE9
3378:  MOVLW  00
337A:  ADDWFC 03,W
337C:  MOVWF  FEA
337E:  MOVLW  01
3380:  MOVWF  FEF
....................                   strcpy(procesos[colap[np-1]].nombre,name);   // copia el nombre y lo gyuarda  
3382:  SUBWF  54,W
3384:  CLRF   03
3386:  ADDLW  40
3388:  MOVWF  FE9
338A:  MOVLW  00
338C:  ADDWFC 03,W
338E:  MOVWF  FEA
3390:  CLRF   16
3392:  BTFSC  FF2.7
3394:  BSF    16.7
3396:  BCF    FF2.7
3398:  MOVLB  7
339A:  CLRF   x39
339C:  MOVFF  FEF,738
33A0:  CLRF   x3B
33A2:  MOVLW  17
33A4:  MOVWF  x3A
33A6:  MOVLB  0
33A8:  CALL   00B8
33AC:  BTFSC  16.7
33AE:  BSF    FF2.7
33B0:  MOVFF  01,6E4
33B4:  MOVLW  12
33B6:  MOVLB  6
33B8:  ADDWF  01,W
33BA:  MOVWF  01
33BC:  MOVLW  00
33BE:  ADDWFC 02,W
33C0:  MOVWF  03
33C2:  MOVF   01,W
33C4:  ADDLW  97
33C6:  MOVWF  01
33C8:  MOVLW  00
33CA:  ADDWFC 03,F
33CC:  MOVFF  01,6E4
33D0:  MOVFF  03,6E5
33D4:  MOVFF  03,FEA
33D8:  MOVFF  01,FE9
33DC:  CLRF   FE2
33DE:  MOVLW  38
33E0:  MOVWF  FE1
33E2:  MOVF   FE7,F
33E4:  MOVFF  FE6,FEE
33E8:  BNZ   33E2
....................                   //printf(lcd_putc, "\f CARGADO: %i ", np); 
....................              } 
....................                result=0; 
33EA:  MOVLB  0
33EC:  CLRF   x60
33EE:  CLRF   5F
33F0:  CLRF   5E
33F2:  CLRF   5D
....................                flag_1 = 0; 
33F4:  MOVLB  6
33F6:  BCF    xE0.1
....................                busc = 0 ; 
33F8:  CLRF   5C
....................                break; 
33FA:  GOTO   3CAE
33FE:  MOVLB  0
....................             } 
....................             case 2: { 
....................                   printf("\n "); 
3400:  MOVLW  0A
3402:  BTFSS  F9E.4
3404:  BRA    3402
3406:  MOVWF  FAD
3408:  MOVLW  20
340A:  BTFSS  F9E.4
340C:  BRA    340A
340E:  MOVWF  FAD
....................                   killp=(result-2)/10; 
3410:  MOVLW  02
3412:  SUBWF  5D,W
3414:  MOVLB  6
3416:  MOVWF  xE4
3418:  MOVLW  00
341A:  SUBWFB 5E,W
341C:  MOVWF  xE5
341E:  MOVLW  00
3420:  SUBWFB 5F,W
3422:  MOVWF  xE6
3424:  MOVLW  00
3426:  MOVLB  0
3428:  SUBWFB x60,W
342A:  MOVLB  6
342C:  MOVWF  xE7
342E:  BCF    FD8.1
3430:  MOVWF  xF3
3432:  MOVFF  6E6,6F2
3436:  MOVFF  6E5,6F1
343A:  MOVFF  6E4,6F0
343E:  CLRF   xF7
3440:  CLRF   xF6
3442:  CLRF   xF5
3444:  MOVLW  0A
3446:  MOVWF  xF4
3448:  MOVLB  0
344A:  CALL   0B56
344E:  MOVFF  00,89
....................                for( i=0; i<np; i++ ){ 
3452:  CLRF   55
3454:  MOVF   54,W
3456:  SUBWF  55,W
3458:  BC    34BC
....................                     if(procesos[colap[i]].id == killp){ busc = i; break;} 
345A:  CLRF   03
345C:  MOVF   55,W
345E:  ADDLW  40
3460:  MOVWF  FE9
3462:  MOVLW  00
3464:  ADDWFC 03,W
3466:  MOVWF  FEA
3468:  CLRF   16
346A:  BTFSC  FF2.7
346C:  BSF    16.7
346E:  BCF    FF2.7
3470:  MOVLB  7
3472:  CLRF   x39
3474:  MOVFF  FEF,738
3478:  CLRF   x3B
347A:  MOVLW  17
347C:  MOVWF  x3A
347E:  MOVLB  0
3480:  CALL   00B8
3484:  BTFSC  16.7
3486:  BSF    FF2.7
3488:  MOVFF  02,6E5
348C:  MOVFF  01,6E4
3490:  MOVLW  0C
3492:  MOVLB  6
3494:  ADDWF  01,W
3496:  MOVWF  01
3498:  MOVLW  00
349A:  ADDWFC 02,W
349C:  MOVWF  03
349E:  MOVF   01,W
34A0:  ADDLW  97
34A2:  MOVWF  FE9
34A4:  MOVLW  00
34A6:  ADDWFC 03,W
34A8:  MOVWF  FEA
34AA:  MOVLB  0
34AC:  MOVF   x89,W
34AE:  SUBWF  FEF,W
34B0:  BNZ   34B8
34B2:  MOVFF  55,5C
34B6:  BRA    34BC
34B8:  INCF   55,F
34BA:  BRA    3454
....................                } 
....................                   procesos[colap[busc]].estado=0; 
34BC:  CLRF   03
34BE:  MOVF   5C,W
34C0:  ADDLW  40
34C2:  MOVWF  FE9
34C4:  MOVLW  00
34C6:  ADDWFC 03,W
34C8:  MOVWF  FEA
34CA:  CLRF   16
34CC:  BTFSC  FF2.7
34CE:  BSF    16.7
34D0:  BCF    FF2.7
34D2:  MOVLB  7
34D4:  CLRF   x39
34D6:  MOVFF  FEF,738
34DA:  CLRF   x3B
34DC:  MOVLW  17
34DE:  MOVWF  x3A
34E0:  MOVLB  0
34E2:  CALL   00B8
34E6:  BTFSC  16.7
34E8:  BSF    FF2.7
34EA:  MOVFF  01,6E4
34EE:  MOVLW  08
34F0:  MOVLB  6
34F2:  ADDWF  01,W
34F4:  MOVWF  01
34F6:  MOVLW  00
34F8:  ADDWFC 02,W
34FA:  MOVWF  03
34FC:  MOVF   01,W
34FE:  ADDLW  97
3500:  MOVWF  FE9
3502:  MOVLW  00
3504:  ADDWFC 03,W
3506:  MOVWF  FEA
3508:  CLRF   FEF
....................                   //printf(lcd_putc, "\f desc. %u ", killp); 
....................                   printf("\n proceso descargado   : %u  ", killp); 
350A:  MOVLW  06
350C:  MOVWF  FF6
350E:  MOVLW  0A
3510:  MOVWF  FF7
3512:  MOVLW  19
3514:  MOVWF  xE4
3516:  MOVLB  0
3518:  CALL   0C10
351C:  MOVFF  89,6E4
3520:  MOVLW  1B
3522:  MOVLB  6
3524:  MOVWF  xE5
3526:  MOVLB  0
3528:  CALL   0C66
352C:  MOVLW  20
352E:  BTFSS  F9E.4
3530:  BRA    352E
3532:  MOVWF  FAD
3534:  MOVLW  20
3536:  BTFSS  F9E.4
3538:  BRA    3536
353A:  MOVWF  FAD
....................                   printf("\n "); 
353C:  MOVLW  0A
353E:  BTFSS  F9E.4
3540:  BRA    353E
3542:  MOVWF  FAD
3544:  MOVLW  20
3546:  BTFSS  F9E.4
3548:  BRA    3546
354A:  MOVWF  FAD
....................                for( i=busc; i<np; i++ ){ 
354C:  MOVFF  5C,55
3550:  MOVF   54,W
3552:  SUBWF  55,W
3554:  BC    358E
....................                   colap[i]=colap[i+1]; 
3556:  CLRF   03
3558:  MOVF   55,W
355A:  ADDLW  40
355C:  MOVWF  01
355E:  MOVLW  00
3560:  ADDWFC 03,F
3562:  MOVLB  6
3564:  MOVFF  03,6E5
3568:  MOVLW  01
356A:  ADDWF  55,W
356C:  CLRF   03
356E:  ADDLW  40
3570:  MOVWF  FE9
3572:  MOVLW  00
3574:  ADDWFC 03,W
3576:  MOVWF  FEA
3578:  MOVFF  FEF,6E6
357C:  MOVFF  6E5,FEA
3580:  MOVFF  01,FE9
3584:  MOVFF  6E6,FEF
3588:  INCF   55,F
358A:  MOVLB  0
358C:  BRA    3550
....................                } 
....................                    np--; 
358E:  DECF   54,F
....................                    result=0; 
3590:  CLRF   x60
3592:  CLRF   5F
3594:  CLRF   5E
3596:  CLRF   5D
....................                    busc = 0; 
3598:  CLRF   5C
....................                    break; 
359A:  MOVLB  6
359C:  BRA    3CAE
359E:  MOVLB  0
....................                } 
....................              case 3: { 
....................                      
....................                   //   printf("\n 'SISTEMAS EN TIEMPO REAL MT-325 UNI-FIM'  "); 
....................                     printf("\n 'S.O. Version 3.2' \n");  
35A0:  MOVLW  24
35A2:  MOVWF  FF6
35A4:  MOVLW  0A
35A6:  MOVWF  FF7
35A8:  CALL   0CE4
....................                     //lcd_gotoxy(1,1); 
....................                     //lcd_putc("S.O. Version 3.2"); 
....................                     result=0; 
35AC:  CLRF   x60
35AE:  CLRF   5F
35B0:  CLRF   5E
35B2:  CLRF   5D
....................                     break; 
35B4:  MOVLB  6
35B6:  BRA    3CAE
35B8:  MOVLB  0
....................               
....................              } 
....................              case 4: { 
....................               
....................                   for ( i=0; i<np; i++ ){ 
35BA:  CLRF   55
35BC:  MOVF   54,W
35BE:  SUBWF  55,W
35C0:  BTFSC  FD8.0
35C2:  BRA    38C4
....................                      idenv =  procesos[colap[i]].id; 
35C4:  CLRF   03
35C6:  MOVF   55,W
35C8:  ADDLW  40
35CA:  MOVWF  FE9
35CC:  MOVLW  00
35CE:  ADDWFC 03,W
35D0:  MOVWF  FEA
35D2:  CLRF   16
35D4:  BTFSC  FF2.7
35D6:  BSF    16.7
35D8:  BCF    FF2.7
35DA:  MOVLB  7
35DC:  CLRF   x39
35DE:  MOVFF  FEF,738
35E2:  CLRF   x3B
35E4:  MOVLW  17
35E6:  MOVWF  x3A
35E8:  MOVLB  0
35EA:  CALL   00B8
35EE:  BTFSC  16.7
35F0:  BSF    FF2.7
35F2:  MOVFF  01,6E4
35F6:  MOVLW  0C
35F8:  MOVLB  6
35FA:  ADDWF  01,W
35FC:  MOVWF  01
35FE:  MOVLW  00
3600:  ADDWFC 02,W
3602:  MOVWF  03
3604:  MOVF   01,W
3606:  ADDLW  97
3608:  MOVWF  FE9
360A:  MOVLW  00
360C:  ADDWFC 03,W
360E:  MOVWF  FEA
3610:  MOVFF  FEF,6B
....................                      strcpy(nomenv,procesos[colap[i]].nombre);  
3614:  CLRF   03
3616:  MOVF   55,W
3618:  ADDLW  40
361A:  MOVWF  FE9
361C:  MOVLW  00
361E:  ADDWFC 03,W
3620:  MOVWF  FEA
3622:  CLRF   16
3624:  BTFSC  FF2.7
3626:  BSF    16.7
3628:  BCF    FF2.7
362A:  MOVLB  7
362C:  CLRF   x39
362E:  MOVFF  FEF,738
3632:  CLRF   x3B
3634:  MOVLW  17
3636:  MOVWF  x3A
3638:  MOVLB  0
363A:  CALL   00B8
363E:  BTFSC  16.7
3640:  BSF    FF2.7
3642:  MOVFF  01,6E4
3646:  MOVLW  12
3648:  MOVLB  6
364A:  ADDWF  01,W
364C:  MOVWF  01
364E:  MOVLW  00
3650:  ADDWFC 02,W
3652:  MOVWF  03
3654:  MOVF   01,W
3656:  ADDLW  97
3658:  MOVWF  01
365A:  MOVLW  00
365C:  ADDWFC 03,F
365E:  MOVFF  01,6E4
3662:  MOVFF  03,6E5
3666:  CLRF   FEA
3668:  MOVLW  6C
366A:  MOVWF  FE9
366C:  MOVFF  03,FE2
3670:  MOVFF  01,FE1
3674:  MOVF   FE7,F
3676:  MOVFF  FE6,FEE
367A:  BNZ   3674
....................                      estenv = procesos[colap[i]].estado;   
367C:  CLRF   03
367E:  MOVF   55,W
3680:  ADDLW  40
3682:  MOVWF  FE9
3684:  MOVLW  00
3686:  ADDWFC 03,W
3688:  MOVWF  FEA
368A:  CLRF   16
368C:  BTFSC  FF2.7
368E:  BSF    16.7
3690:  BCF    FF2.7
3692:  MOVLB  7
3694:  CLRF   x39
3696:  MOVFF  FEF,738
369A:  CLRF   x3B
369C:  MOVLW  17
369E:  MOVWF  x3A
36A0:  MOVLB  0
36A2:  CALL   00B8
36A6:  BTFSC  16.7
36A8:  BSF    FF2.7
36AA:  MOVFF  01,6E4
36AE:  MOVLW  08
36B0:  MOVLB  6
36B2:  ADDWF  01,W
36B4:  MOVWF  01
36B6:  MOVLW  00
36B8:  ADDWFC 02,W
36BA:  MOVWF  03
36BC:  MOVF   01,W
36BE:  ADDLW  97
36C0:  MOVWF  FE9
36C2:  MOVLW  00
36C4:  ADDWFC 03,W
36C6:  MOVWF  FEA
36C8:  MOVFF  FEF,71
....................                      direnv = procesos[colap[i]].dir_ini; 
36CC:  CLRF   03
36CE:  MOVF   55,W
36D0:  ADDLW  40
36D2:  MOVWF  FE9
36D4:  MOVLW  00
36D6:  ADDWFC 03,W
36D8:  MOVWF  FEA
36DA:  CLRF   16
36DC:  BTFSC  FF2.7
36DE:  BSF    16.7
36E0:  BCF    FF2.7
36E2:  MOVLB  7
36E4:  CLRF   x39
36E6:  MOVFF  FEF,738
36EA:  CLRF   x3B
36EC:  MOVLW  17
36EE:  MOVWF  x3A
36F0:  MOVLB  0
36F2:  CALL   00B8
36F6:  BTFSC  16.7
36F8:  BSF    FF2.7
36FA:  MOVLW  97
36FC:  MOVLB  6
36FE:  ADDWF  01,W
3700:  MOVWF  FE9
3702:  MOVLW  00
3704:  ADDWFC 02,W
3706:  MOVWF  FEA
3708:  MOVFF  FEF,72
370C:  MOVFF  FEC,73
3710:  MOVFF  FEC,74
3714:  MOVFF  FEC,75
....................                      diraenv = procesos[colap[i]].dir_cor; 
3718:  CLRF   03
371A:  MOVF   55,W
371C:  ADDLW  40
371E:  MOVWF  FE9
3720:  MOVLW  00
3722:  ADDWFC 03,W
3724:  MOVWF  FEA
3726:  CLRF   16
3728:  BTFSC  FF2.7
372A:  BSF    16.7
372C:  BCF    FF2.7
372E:  MOVLB  7
3730:  CLRF   x39
3732:  MOVFF  FEF,738
3736:  CLRF   x3B
3738:  MOVLW  17
373A:  MOVWF  x3A
373C:  MOVLB  0
373E:  CALL   00B8
3742:  BTFSC  16.7
3744:  BSF    FF2.7
3746:  MOVFF  01,6E4
374A:  MOVLW  04
374C:  MOVLB  6
374E:  ADDWF  01,W
3750:  MOVWF  01
3752:  MOVLW  00
3754:  ADDWFC 02,W
3756:  MOVWF  03
3758:  MOVF   01,W
375A:  ADDLW  97
375C:  MOVWF  FE9
375E:  MOVLW  00
3760:  ADDWFC 03,W
3762:  MOVWF  FEA
3764:  MOVFF  FEF,76
3768:  MOVFF  FEC,77
376C:  MOVFF  FEC,78
3770:  MOVFF  FEC,79
....................                      quantenv = procesos[colap[i]].tiem_eje; 
3774:  CLRF   03
3776:  MOVF   55,W
3778:  ADDLW  40
377A:  MOVWF  FE9
377C:  MOVLW  00
377E:  ADDWFC 03,W
3780:  MOVWF  FEA
3782:  CLRF   16
3784:  BTFSC  FF2.7
3786:  BSF    16.7
3788:  BCF    FF2.7
378A:  MOVLB  7
378C:  CLRF   x39
378E:  MOVFF  FEF,738
3792:  CLRF   x3B
3794:  MOVLW  17
3796:  MOVWF  x3A
3798:  MOVLB  0
379A:  CALL   00B8
379E:  BTFSC  16.7
37A0:  BSF    FF2.7
37A2:  MOVFF  01,6E4
37A6:  MOVLW  0E
37A8:  MOVLB  6
37AA:  ADDWF  01,W
37AC:  MOVWF  01
37AE:  MOVLW  00
37B0:  ADDWFC 02,W
37B2:  MOVWF  03
37B4:  MOVF   01,W
37B6:  ADDLW  97
37B8:  MOVWF  FE9
37BA:  MOVLW  00
37BC:  ADDWFC 03,W
37BE:  MOVWF  FEA
37C0:  MOVFF  FEF,7A
37C4:  MOVFF  FEC,7B
37C8:  MOVFF  FEC,7C
37CC:  MOVFF  FEC,7D
....................                      printf("%u + %s + %u + %Lu + %Lu + %Lu",idenv,nomenv,estenv,direnv,diraenv,quantenv); 
37D0:  MOVFF  6B,6E4
37D4:  MOVLW  1B
37D6:  MOVWF  xE5
37D8:  MOVLB  0
37DA:  CALL   0C66
37DE:  MOVLW  3E
37E0:  MOVWF  FF6
37E2:  MOVLW  0A
37E4:  MOVWF  FF7
37E6:  MOVLW  03
37E8:  MOVLB  6
37EA:  MOVWF  xE4
37EC:  MOVLB  0
37EE:  CALL   0C10
37F2:  CLRF   FEA
37F4:  MOVLW  6C
37F6:  MOVWF  FE9
37F8:  CALL   0BEA
37FC:  MOVLW  43
37FE:  MOVWF  FF6
3800:  MOVLW  0A
3802:  MOVWF  FF7
3804:  MOVLW  03
3806:  MOVLB  6
3808:  MOVWF  xE4
380A:  MOVLB  0
380C:  CALL   0C10
3810:  MOVFF  71,6E4
3814:  MOVLW  1B
3816:  MOVLB  6
3818:  MOVWF  xE5
381A:  MOVLB  0
381C:  CALL   0C66
3820:  MOVLW  48
3822:  MOVWF  FF6
3824:  MOVLW  0A
3826:  MOVWF  FF7
3828:  MOVLW  03
382A:  MOVLB  6
382C:  MOVWF  xE4
382E:  MOVLB  0
3830:  CALL   0C10
3834:  MOVLW  41
3836:  MOVWF  FE9
3838:  MOVFF  75,6E7
383C:  MOVFF  74,6E6
3840:  MOVFF  73,6E5
3844:  MOVFF  72,6E4
3848:  CALL   0D06
384C:  MOVLW  4E
384E:  MOVWF  FF6
3850:  MOVLW  0A
3852:  MOVWF  FF7
3854:  MOVLW  03
3856:  MOVLB  6
3858:  MOVWF  xE4
385A:  MOVLB  0
385C:  CALL   0C10
3860:  MOVLW  41
3862:  MOVWF  FE9
3864:  MOVFF  79,6E7
3868:  MOVFF  78,6E6
386C:  MOVFF  77,6E5
3870:  MOVFF  76,6E4
3874:  CALL   0D06
3878:  MOVLW  54
387A:  MOVWF  FF6
387C:  MOVLW  0A
387E:  MOVWF  FF7
3880:  MOVLW  03
3882:  MOVLB  6
3884:  MOVWF  xE4
3886:  MOVLB  0
3888:  CALL   0C10
388C:  MOVLW  41
388E:  MOVWF  FE9
3890:  MOVFF  7D,6E7
3894:  MOVFF  7C,6E6
3898:  MOVFF  7B,6E5
389C:  MOVFF  7A,6E4
38A0:  CALL   0D06
....................                      printf("\r\n"); 
38A4:  MOVLW  0D
38A6:  BTFSS  F9E.4
38A8:  BRA    38A6
38AA:  MOVWF  FAD
38AC:  MOVLW  0A
38AE:  BTFSS  F9E.4
38B0:  BRA    38AE
38B2:  MOVWF  FAD
....................                      delay_ms(18); 
38B4:  MOVLW  12
38B6:  MOVLB  6
38B8:  MOVWF  xE4
38BA:  MOVLB  0
38BC:  GOTO   0DC2
38C0:  INCF   55,F
38C2:  BRA    35BC
....................                      } 
....................                      result=0; 
38C4:  CLRF   x60
38C6:  CLRF   5F
38C8:  CLRF   5E
38CA:  CLRF   5D
....................                break; 
38CC:  MOVLB  6
38CE:  BRA    3CAE
38D0:  MOVLB  0
....................               } 
....................                case 5: { 
....................                // Se cargan los procesos de la base de datos 
....................                for ( i=9; i<14; i++){ 
38D2:  MOVLW  09
38D4:  MOVWF  55
38D6:  MOVF   55,W
38D8:  SUBLW  0D
38DA:  BTFSS  FD8.0
38DC:  BRA    3B66
....................                   switch (i){ 
38DE:  MOVLW  09
38E0:  SUBWF  55,W
38E2:  ADDLW  FB
38E4:  BTFSC  FD8.0
38E6:  BRA    3A4A
38E8:  ADDLW  05
38EA:  GOTO   0DF8
....................                      case 9: 
38EE:  CLRF   16
38F0:  BTFSC  FF2.7
38F2:  BSF    16.7
38F4:  BCF    FF2.7
....................                         procesos[i].dir_ini=0x5000; 
38F6:  MOVLB  7
38F8:  CLRF   x39
38FA:  MOVFF  55,738
38FE:  CLRF   x3B
3900:  MOVLW  17
3902:  MOVWF  x3A
3904:  MOVLB  0
3906:  CALL   00B8
390A:  BTFSC  16.7
390C:  BSF    FF2.7
390E:  MOVLW  97
3910:  MOVLB  6
3912:  ADDWF  01,W
3914:  MOVWF  FE9
3916:  MOVLW  00
3918:  ADDWFC 02,W
391A:  MOVWF  FEA
391C:  MOVF   FEE,F
391E:  MOVF   FEE,F
3920:  CLRF   FEC
3922:  MOVF   FED,F
3924:  CLRF   FEF
3926:  MOVF   FED,F
3928:  MOVLW  50
392A:  MOVWF  FEF
392C:  MOVF   FED,F
392E:  CLRF   FEF
....................                         break; 
3930:  MOVLB  0
3932:  BRA    3A4A
....................                      case 10: 
3934:  CLRF   16
3936:  BTFSC  FF2.7
3938:  BSF    16.7
393A:  BCF    FF2.7
....................                         procesos[i].dir_ini=0x5100; 
393C:  MOVLB  7
393E:  CLRF   x39
3940:  MOVFF  55,738
3944:  CLRF   x3B
3946:  MOVLW  17
3948:  MOVWF  x3A
394A:  MOVLB  0
394C:  CALL   00B8
3950:  BTFSC  16.7
3952:  BSF    FF2.7
3954:  MOVLW  97
3956:  MOVLB  6
3958:  ADDWF  01,W
395A:  MOVWF  FE9
395C:  MOVLW  00
395E:  ADDWFC 02,W
3960:  MOVWF  FEA
3962:  MOVF   FEE,F
3964:  MOVF   FEE,F
3966:  CLRF   FEC
3968:  MOVF   FED,F
396A:  CLRF   FEF
396C:  MOVF   FED,F
396E:  MOVLW  51
3970:  MOVWF  FEF
3972:  MOVF   FED,F
3974:  CLRF   FEF
....................                         break; 
3976:  MOVLB  0
3978:  BRA    3A4A
....................                      case 11: 
397A:  CLRF   16
397C:  BTFSC  FF2.7
397E:  BSF    16.7
3980:  BCF    FF2.7
....................                         procesos[i].dir_ini=0x5200; 
3982:  MOVLB  7
3984:  CLRF   x39
3986:  MOVFF  55,738
398A:  CLRF   x3B
398C:  MOVLW  17
398E:  MOVWF  x3A
3990:  MOVLB  0
3992:  CALL   00B8
3996:  BTFSC  16.7
3998:  BSF    FF2.7
399A:  MOVLW  97
399C:  MOVLB  6
399E:  ADDWF  01,W
39A0:  MOVWF  FE9
39A2:  MOVLW  00
39A4:  ADDWFC 02,W
39A6:  MOVWF  FEA
39A8:  MOVF   FEE,F
39AA:  MOVF   FEE,F
39AC:  CLRF   FEC
39AE:  MOVF   FED,F
39B0:  CLRF   FEF
39B2:  MOVF   FED,F
39B4:  MOVLW  52
39B6:  MOVWF  FEF
39B8:  MOVF   FED,F
39BA:  CLRF   FEF
....................                         break; 
39BC:  MOVLB  0
39BE:  BRA    3A4A
....................                      case 12: 
39C0:  CLRF   16
39C2:  BTFSC  FF2.7
39C4:  BSF    16.7
39C6:  BCF    FF2.7
....................                         procesos[i].dir_ini=0x5300; 
39C8:  MOVLB  7
39CA:  CLRF   x39
39CC:  MOVFF  55,738
39D0:  CLRF   x3B
39D2:  MOVLW  17
39D4:  MOVWF  x3A
39D6:  MOVLB  0
39D8:  CALL   00B8
39DC:  BTFSC  16.7
39DE:  BSF    FF2.7
39E0:  MOVLW  97
39E2:  MOVLB  6
39E4:  ADDWF  01,W
39E6:  MOVWF  FE9
39E8:  MOVLW  00
39EA:  ADDWFC 02,W
39EC:  MOVWF  FEA
39EE:  MOVF   FEE,F
39F0:  MOVF   FEE,F
39F2:  CLRF   FEC
39F4:  MOVF   FED,F
39F6:  CLRF   FEF
39F8:  MOVF   FED,F
39FA:  MOVLW  53
39FC:  MOVWF  FEF
39FE:  MOVF   FED,F
3A00:  CLRF   FEF
....................                         break; 
3A02:  MOVLB  0
3A04:  BRA    3A4A
....................                      case 13: 
3A06:  CLRF   16
3A08:  BTFSC  FF2.7
3A0A:  BSF    16.7
3A0C:  BCF    FF2.7
....................                         procesos[i].dir_ini=0x5400; 
3A0E:  MOVLB  7
3A10:  CLRF   x39
3A12:  MOVFF  55,738
3A16:  CLRF   x3B
3A18:  MOVLW  17
3A1A:  MOVWF  x3A
3A1C:  MOVLB  0
3A1E:  CALL   00B8
3A22:  BTFSC  16.7
3A24:  BSF    FF2.7
3A26:  MOVLW  97
3A28:  MOVLB  6
3A2A:  ADDWF  01,W
3A2C:  MOVWF  FE9
3A2E:  MOVLW  00
3A30:  ADDWFC 02,W
3A32:  MOVWF  FEA
3A34:  MOVF   FEE,F
3A36:  MOVF   FEE,F
3A38:  CLRF   FEC
3A3A:  MOVF   FED,F
3A3C:  CLRF   FEF
3A3E:  MOVF   FED,F
3A40:  MOVLW  54
3A42:  MOVWF  FEF
3A44:  MOVF   FED,F
3A46:  CLRF   FEF
....................                         break; 
3A48:  MOVLB  0
....................                   } 
3A4A:  CLRF   16
3A4C:  BTFSC  FF2.7
3A4E:  BSF    16.7
3A50:  BCF    FF2.7
....................                   procesos[i].estado=1;       // 1 = proceso cargado 
3A52:  MOVLB  7
3A54:  CLRF   x39
3A56:  MOVFF  55,738
3A5A:  CLRF   x3B
3A5C:  MOVLW  17
3A5E:  MOVWF  x3A
3A60:  MOVLB  0
3A62:  CALL   00B8
3A66:  BTFSC  16.7
3A68:  BSF    FF2.7
3A6A:  MOVFF  01,6E4
3A6E:  MOVLW  08
3A70:  MOVLB  6
3A72:  ADDWF  01,W
3A74:  MOVWF  01
3A76:  MOVLW  00
3A78:  ADDWFC 02,W
3A7A:  MOVWF  03
3A7C:  MOVF   01,W
3A7E:  ADDLW  97
3A80:  MOVWF  FE9
3A82:  MOVLW  00
3A84:  ADDWFC 03,W
3A86:  MOVWF  FEA
3A88:  MOVLW  01
3A8A:  MOVWF  FEF
3A8C:  CLRF   16
3A8E:  BTFSC  FF2.7
3A90:  BSF    16.7
3A92:  BCF    FF2.7
....................                   procesos[i].id=i; 
3A94:  MOVLB  7
3A96:  CLRF   x39
3A98:  MOVFF  55,738
3A9C:  CLRF   x3B
3A9E:  MOVLW  17
3AA0:  MOVWF  x3A
3AA2:  MOVLB  0
3AA4:  CALL   00B8
3AA8:  BTFSC  16.7
3AAA:  BSF    FF2.7
3AAC:  MOVFF  01,6E4
3AB0:  MOVLW  0C
3AB2:  MOVLB  6
3AB4:  ADDWF  01,W
3AB6:  MOVWF  01
3AB8:  MOVLW  00
3ABA:  ADDWFC 02,W
3ABC:  MOVWF  03
3ABE:  MOVF   01,W
3AC0:  ADDLW  97
3AC2:  MOVWF  FE9
3AC4:  MOVLW  00
3AC6:  ADDWFC 03,W
3AC8:  MOVWF  FEA
3ACA:  MOVFF  55,FEF
3ACE:  CLRF   16
3AD0:  BTFSC  FF2.7
3AD2:  BSF    16.7
3AD4:  BCF    FF2.7
....................                   procesos[i].tiem_eje=0; 
3AD6:  MOVLB  7
3AD8:  CLRF   x39
3ADA:  MOVFF  55,738
3ADE:  CLRF   x3B
3AE0:  MOVLW  17
3AE2:  MOVWF  x3A
3AE4:  MOVLB  0
3AE6:  CALL   00B8
3AEA:  BTFSC  16.7
3AEC:  BSF    FF2.7
3AEE:  MOVFF  01,6E4
3AF2:  MOVLW  0E
3AF4:  MOVLB  6
3AF6:  ADDWF  01,W
3AF8:  MOVWF  01
3AFA:  MOVLW  00
3AFC:  ADDWFC 02,W
3AFE:  MOVWF  03
3B00:  MOVF   01,W
3B02:  ADDLW  97
3B04:  MOVWF  FE9
3B06:  MOVLW  00
3B08:  ADDWFC 03,W
3B0A:  MOVWF  FEA
3B0C:  MOVF   FEE,F
3B0E:  MOVF   FEE,F
3B10:  CLRF   FEC
3B12:  MOVF   FED,F
3B14:  CLRF   FEF
3B16:  MOVF   FED,F
3B18:  CLRF   FEF
3B1A:  MOVF   FED,F
3B1C:  CLRF   FEF
3B1E:  CLRF   16
3B20:  BTFSC  FF2.7
3B22:  BSF    16.7
3B24:  BCF    FF2.7
....................                   procesos[i].prioridad =5; 
3B26:  MOVLB  7
3B28:  CLRF   x39
3B2A:  MOVFF  55,738
3B2E:  CLRF   x3B
3B30:  MOVLW  17
3B32:  MOVWF  x3A
3B34:  MOVLB  0
3B36:  CALL   00B8
3B3A:  BTFSC  16.7
3B3C:  BSF    FF2.7
3B3E:  MOVFF  01,6E4
3B42:  MOVLW  0D
3B44:  MOVLB  6
3B46:  ADDWF  01,W
3B48:  MOVWF  01
3B4A:  MOVLW  00
3B4C:  ADDWFC 02,W
3B4E:  MOVWF  03
3B50:  MOVF   01,W
3B52:  ADDLW  97
3B54:  MOVWF  FE9
3B56:  MOVLW  00
3B58:  ADDWFC 03,W
3B5A:  MOVWF  FEA
3B5C:  MOVLW  05
3B5E:  MOVWF  FEF
3B60:  INCF   55,F
3B62:  MOVLB  0
3B64:  BRA    38D6
....................                } 
....................                 
....................                result =0; 
3B66:  CLRF   x60
3B68:  CLRF   5F
3B6A:  CLRF   5E
3B6C:  CLRF   5D
....................                estado_calendario = 1;  
3B6E:  MOVLW  01
3B70:  MOVLB  6
3B72:  MOVWF  xD8
....................                printf("Procesos cargados Exitosamente"); 
3B74:  MOVLW  5C
3B76:  MOVWF  FF6
3B78:  MOVLW  0A
3B7A:  MOVWF  FF7
3B7C:  MOVLB  0
3B7E:  CALL   0CE4
....................                    break; 
3B82:  MOVLB  6
3B84:  BRA    3CAE
3B86:  MOVLB  0
....................                } 
....................                case 6: { 
....................                   // Ejecutar calendario 
....................                    band_cal_ejec=1;   // activa la bandera de ejecucion del calendario  
3B88:  MOVLW  01
3B8A:  MOVLB  6
3B8C:  MOVWF  xDA
....................                    estado_calendario = 2; 
3B8E:  MOVLW  02
3B90:  MOVWF  xD8
....................                    reloj = 0; 
3B92:  CLRF   xD6
....................                    ind_cal = 0; 
3B94:  CLRF   xDC
3B96:  CLRF   xDB
....................                    bandera = 0;   
3B98:  CLRF   xDF
....................                    result = 0; 
3B9A:  MOVLB  0
3B9C:  CLRF   x60
3B9E:  CLRF   5F
3BA0:  CLRF   5E
3BA2:  CLRF   5D
....................                  break; 
3BA4:  MOVLB  6
3BA6:  BRA    3CAE
3BA8:  MOVLB  0
....................                }               
....................                case 7: { 
....................                   // Detener ejecucion del calendario                  
....................                    estado_calendario = 0;           
3BAA:  MOVLB  6
3BAC:  CLRF   xD8
....................                    band_cal_ejec = 0;  
3BAE:  CLRF   xDA
....................                    result =0; 
3BB0:  MOVLB  0
3BB2:  CLRF   x60
3BB4:  CLRF   5F
3BB6:  CLRF   5E
3BB8:  CLRF   5D
....................                    break; 
3BBA:  MOVLB  6
3BBC:  BRA    3CAE
3BBE:  MOVLB  0
....................                } 
....................                case 8: { 
....................                   // Eliminar calendario 
....................                   // Liberar los PCBs  
....................                    int c1; 
....................                    for(c1=0;c1<15;c1++){ 
3BC0:  MOVLB  6
3BC2:  CLRF   xE1
3BC4:  MOVF   xE1,W
3BC6:  SUBLW  0E
3BC8:  BNC   3C56
3BCA:  CLRF   16
3BCC:  BTFSC  FF2.7
3BCE:  BSF    16.7
3BD0:  BCF    FF2.7
....................                       if(procesos[i].prioridad == 5){ 
3BD2:  MOVLB  7
3BD4:  CLRF   x39
3BD6:  MOVFF  55,738
3BDA:  CLRF   x3B
3BDC:  MOVLW  17
3BDE:  MOVWF  x3A
3BE0:  MOVLB  0
3BE2:  CALL   00B8
3BE6:  BTFSC  16.7
3BE8:  BSF    FF2.7
3BEA:  MOVFF  02,6E5
3BEE:  MOVFF  01,6E4
3BF2:  MOVLW  0D
3BF4:  MOVLB  6
3BF6:  ADDWF  01,W
3BF8:  MOVWF  01
3BFA:  MOVLW  00
3BFC:  ADDWFC 02,W
3BFE:  MOVWF  03
3C00:  MOVF   01,W
3C02:  ADDLW  97
3C04:  MOVWF  FE9
3C06:  MOVLW  00
3C08:  ADDWFC 03,W
3C0A:  MOVWF  FEA
3C0C:  MOVF   FEF,W
3C0E:  SUBLW  05
3C10:  BNZ   3C52
3C12:  CLRF   16
3C14:  BTFSC  FF2.7
3C16:  BSF    16.7
3C18:  BCF    FF2.7
....................                       procesos[i].estado = 0; 
3C1A:  MOVLB  7
3C1C:  CLRF   x39
3C1E:  MOVFF  55,738
3C22:  CLRF   x3B
3C24:  MOVLW  17
3C26:  MOVWF  x3A
3C28:  MOVLB  0
3C2A:  CALL   00B8
3C2E:  BTFSC  16.7
3C30:  BSF    FF2.7
3C32:  MOVFF  01,6E4
3C36:  MOVLW  08
3C38:  MOVLB  6
3C3A:  ADDWF  01,W
3C3C:  MOVWF  01
3C3E:  MOVLW  00
3C40:  ADDWFC 02,W
3C42:  MOVWF  03
3C44:  MOVF   01,W
3C46:  ADDLW  97
3C48:  MOVWF  FE9
3C4A:  MOVLW  00
3C4C:  ADDWFC 03,W
3C4E:  MOVWF  FEA
3C50:  CLRF   FEF
....................                       } 
3C52:  INCF   xE1,F
3C54:  BRA    3BC4
....................                    } 
....................                      estado_calendario = 2; 
3C56:  MOVLW  02
3C58:  MOVWF  xD8
....................                      result =0;  
3C5A:  MOVLB  0
3C5C:  CLRF   x60
3C5E:  CLRF   5F
3C60:  CLRF   5E
3C62:  CLRF   5D
....................                  break; 
3C64:  MOVLB  6
3C66:  BRA    3CAE
3C68:  MOVLB  0
....................                } 
....................                case 9: { 
....................                    // Muestra el vector calendario   
....................                    int mos,p; 
....................                    for( p = 0; p<mcm;p++){ 
3C6A:  MOVLB  6
3C6C:  CLRF   xE3
3C6E:  MOVF   xDE,F
3C70:  BNZ   3C78
3C72:  MOVF   xDD,W
3C74:  SUBWF  xE3,W
3C76:  BC    3C9E
....................                       mos = calendario[p]; 
3C78:  MOVLW  C2
3C7A:  ADDWF  xE3,W
3C7C:  MOVWF  FE9
3C7E:  MOVLW  01
3C80:  MOVWF  FEA
3C82:  BTFSC  FD8.0
3C84:  INCF   FEA,F
3C86:  MOVFF  FEF,6E2
....................                       printf("%u",mos); 
3C8A:  MOVFF  6E2,6E4
3C8E:  MOVLW  1B
3C90:  MOVWF  xE5
3C92:  MOVLB  0
3C94:  CALL   0C66
3C98:  MOVLB  6
3C9A:  INCF   xE3,F
3C9C:  BRA    3C6E
....................                    } 
....................                      result = 0;    
3C9E:  MOVLB  0
3CA0:  CLRF   x60
3CA2:  CLRF   5F
3CA4:  CLRF   5E
3CA6:  CLRF   5D
....................                   // printf("Vector Calendarizado"); 
....................                    break; 
3CA8:  MOVLB  6
3CAA:  BRA    3CAE
....................                } 
....................                default:break; 
3CAC:  MOVLB  6
....................         } 
....................          
....................         
....................     if (estado_calendario == 2 && mcm != 0) 
3CAE:  MOVF   xD8,W
3CB0:  SUBLW  02
3CB2:  BTFSS  FD8.2
3CB4:  BRA    3ED0
3CB6:  MOVF   xDD,F
3CB8:  BNZ   3CC0
3CBA:  MOVF   xDE,F
3CBC:  BTFSC  FD8.2
3CBE:  BRA    3ED0
....................     { 
....................             if ( reloj == 0 )  // "reloj" 
3CC0:  MOVF   xD6,F
3CC2:  BNZ   3D82
....................             { 
....................                for ( i=0; i< np; i++ ) 
3CC4:  CLRF   55
3CC6:  MOVF   54,W
3CC8:  SUBWF  55,W
3CCA:  BC    3D04
....................                { 
....................                   colap[np-i] = colap[np-i-1]; 
3CCC:  MOVF   55,W
3CCE:  SUBWF  54,W
3CD0:  CLRF   03
3CD2:  ADDLW  40
3CD4:  MOVWF  01
3CD6:  MOVLW  00
3CD8:  ADDWFC 03,F
3CDA:  MOVFF  03,6E5
3CDE:  MOVF   55,W
3CE0:  SUBWF  54,W
3CE2:  ADDLW  FF
3CE4:  CLRF   03
3CE6:  ADDLW  40
3CE8:  MOVWF  FE9
3CEA:  MOVLW  00
3CEC:  ADDWFC 03,W
3CEE:  MOVWF  FEA
3CF0:  MOVFF  FEF,6E6
3CF4:  MOVFF  6E5,FEA
3CF8:  MOVFF  01,FE9
3CFC:  MOVFF  6E6,FEF
3D00:  INCF   55,F
3D02:  BRA    3CC6
....................                } 
....................                 
....................                colap[0] = calendario[reloj] + 8; 
3D04:  MOVLW  C2
3D06:  ADDWF  xD6,W
3D08:  MOVWF  FE9
3D0A:  MOVLW  01
3D0C:  MOVWF  FEA
3D0E:  BTFSC  FD8.0
3D10:  INCF   FEA,F
3D12:  MOVLW  08
3D14:  ADDWF  FEF,W
3D16:  MOVWF  40
....................                 
....................                if ( bandera == 1) 
3D18:  DECFSZ xDF,W
3D1A:  BRA    3D3C
....................                { 
....................                   if ( calendario[mcm-1] == 0) 
3D1C:  MOVLW  01
3D1E:  SUBWF  xDD,W
3D20:  MOVWF  xE4
3D22:  MOVLW  00
3D24:  SUBWFB xDE,W
3D26:  MOVWF  xE5
3D28:  MOVLW  C2
3D2A:  ADDWF  xE4,W
3D2C:  MOVWF  FE9
3D2E:  MOVLW  01
3D30:  ADDWFC xE5,W
3D32:  MOVWF  FEA
3D34:  MOVF   FEF,F
3D36:  BNZ   3D3A
....................                      np++; 
3D38:  INCF   54,F
....................                } 
3D3A:  BRA    3D3E
....................                 
....................                else 
....................                   np++; 
3D3C:  INCF   54,F
3D3E:  CLRF   16
3D40:  BTFSC  FF2.7
3D42:  BSF    16.7
3D44:  BCF    FF2.7
....................                procesos[colap[0]].estado=1; 
3D46:  MOVLB  7
3D48:  CLRF   x39
3D4A:  MOVFF  40,738
3D4E:  CLRF   x3B
3D50:  MOVLW  17
3D52:  MOVWF  x3A
3D54:  MOVLB  0
3D56:  CALL   00B8
3D5A:  BTFSC  16.7
3D5C:  BSF    FF2.7
3D5E:  MOVFF  01,6E4
3D62:  MOVLW  08
3D64:  MOVLB  6
3D66:  ADDWF  01,W
3D68:  MOVWF  01
3D6A:  MOVLW  00
3D6C:  ADDWFC 02,W
3D6E:  MOVWF  03
3D70:  MOVF   01,W
3D72:  ADDLW  97
3D74:  MOVWF  FE9
3D76:  MOVLW  00
3D78:  ADDWFC 03,W
3D7A:  MOVWF  FEA
3D7C:  MOVLW  01
3D7E:  MOVWF  FEF
....................              
....................             } 
3D80:  BRA    3EBA
....................             else 
....................             { 
....................                if ( calendario[reloj-1] == calendario[reloj] ) 
3D82:  MOVLW  01
3D84:  SUBWF  xD6,W
3D86:  ADDLW  C2
3D88:  MOVWF  FE9
3D8A:  MOVLW  01
3D8C:  MOVWF  FEA
3D8E:  BTFSC  FD8.0
3D90:  INCF   FEA,F
3D92:  MOVFF  FEF,6E4
3D96:  MOVLW  C2
3D98:  ADDWF  xD6,W
3D9A:  MOVWF  FE9
3D9C:  MOVLW  01
3D9E:  MOVWF  FEA
3DA0:  BTFSC  FD8.0
3DA2:  INCF   FEA,F
3DA4:  MOVF   FEF,W
3DA6:  SUBWF  xE4,W
3DA8:  BNZ   3E12
....................                { 
....................                   if ( calendario[reloj] != 0 ) 
3DAA:  MOVLW  C2
3DAC:  ADDWF  xD6,W
3DAE:  MOVWF  FE9
3DB0:  MOVLW  01
3DB2:  MOVWF  FEA
3DB4:  BTFSC  FD8.0
3DB6:  INCF   FEA,F
3DB8:  MOVF   FEF,F
3DBA:  BZ    3E10
....................                   { 
....................                      for ( i=0; i< np; i++ ) 
3DBC:  CLRF   55
3DBE:  MOVF   54,W
3DC0:  SUBWF  55,W
3DC2:  BC    3DFC
....................                      { 
....................                         colap[np-i] = colap[np-i-1]; 
3DC4:  MOVF   55,W
3DC6:  SUBWF  54,W
3DC8:  CLRF   03
3DCA:  ADDLW  40
3DCC:  MOVWF  01
3DCE:  MOVLW  00
3DD0:  ADDWFC 03,F
3DD2:  MOVFF  03,6E5
3DD6:  MOVF   55,W
3DD8:  SUBWF  54,W
3DDA:  ADDLW  FF
3DDC:  CLRF   03
3DDE:  ADDLW  40
3DE0:  MOVWF  FE9
3DE2:  MOVLW  00
3DE4:  ADDWFC 03,W
3DE6:  MOVWF  FEA
3DE8:  MOVFF  FEF,6E6
3DEC:  MOVFF  6E5,FEA
3DF0:  MOVFF  01,FE9
3DF4:  MOVFF  6E6,FEF
3DF8:  INCF   55,F
3DFA:  BRA    3DBE
....................                      } 
....................                      colap[0] = calendario[reloj] + 8; 
3DFC:  MOVLW  C2
3DFE:  ADDWF  xD6,W
3E00:  MOVWF  FE9
3E02:  MOVLW  01
3E04:  MOVWF  FEA
3E06:  BTFSC  FD8.0
3E08:  INCF   FEA,F
3E0A:  MOVLW  08
3E0C:  ADDWF  FEF,W
3E0E:  MOVWF  40
....................                   } 
....................                } 
3E10:  BRA    3EBA
....................                else 
....................                { 
....................                   //np--; 
....................                   if ( calendario[reloj] != 0) 
3E12:  MOVLW  C2
3E14:  ADDWF  xD6,W
3E16:  MOVWF  FE9
3E18:  MOVLW  01
3E1A:  MOVWF  FEA
3E1C:  BTFSC  FD8.0
3E1E:  INCF   FEA,F
3E20:  MOVF   FEF,F
3E22:  BZ    3EBA
....................                   { 
....................                      np++; 
3E24:  INCF   54,F
....................                       
....................                      for ( i=0; i< np; i++ ) 
3E26:  CLRF   55
3E28:  MOVF   54,W
3E2A:  SUBWF  55,W
3E2C:  BC    3E66
....................                      { 
....................                         colap[np-i] = colap[np-i-1]; 
3E2E:  MOVF   55,W
3E30:  SUBWF  54,W
3E32:  CLRF   03
3E34:  ADDLW  40
3E36:  MOVWF  01
3E38:  MOVLW  00
3E3A:  ADDWFC 03,F
3E3C:  MOVFF  03,6E5
3E40:  MOVF   55,W
3E42:  SUBWF  54,W
3E44:  ADDLW  FF
3E46:  CLRF   03
3E48:  ADDLW  40
3E4A:  MOVWF  FE9
3E4C:  MOVLW  00
3E4E:  ADDWFC 03,W
3E50:  MOVWF  FEA
3E52:  MOVFF  FEF,6E6
3E56:  MOVFF  6E5,FEA
3E5A:  MOVFF  01,FE9
3E5E:  MOVFF  6E6,FEF
3E62:  INCF   55,F
3E64:  BRA    3E28
....................                      } 
....................                      colap[0] = calendario[ind_cal] + 8; 
3E66:  MOVLW  C2
3E68:  ADDWF  xDB,W
3E6A:  MOVWF  FE9
3E6C:  MOVLW  01
3E6E:  ADDWFC xDC,W
3E70:  MOVWF  FEA
3E72:  MOVLW  08
3E74:  ADDWF  FEF,W
3E76:  MOVWF  40
3E78:  CLRF   16
3E7A:  BTFSC  FF2.7
3E7C:  BSF    16.7
3E7E:  BCF    FF2.7
....................                      procesos[colap[0]].estado=1; 
3E80:  MOVLB  7
3E82:  CLRF   x39
3E84:  MOVFF  40,738
3E88:  CLRF   x3B
3E8A:  MOVLW  17
3E8C:  MOVWF  x3A
3E8E:  MOVLB  0
3E90:  CALL   00B8
3E94:  BTFSC  16.7
3E96:  BSF    FF2.7
3E98:  MOVFF  01,6E4
3E9C:  MOVLW  08
3E9E:  MOVLB  6
3EA0:  ADDWF  01,W
3EA2:  MOVWF  01
3EA4:  MOVLW  00
3EA6:  ADDWFC 02,W
3EA8:  MOVWF  03
3EAA:  MOVF   01,W
3EAC:  ADDLW  97
3EAE:  MOVWF  FE9
3EB0:  MOVLW  00
3EB2:  ADDWFC 03,W
3EB4:  MOVWF  FEA
3EB6:  MOVLW  01
3EB8:  MOVWF  FEF
....................                   } 
....................                } 
....................             } 
....................             reloj++; 
3EBA:  INCF   xD6,F
....................             if ( ind_cal == mcm ) 
3EBC:  MOVF   xDD,W
3EBE:  SUBWF  xDB,W
3EC0:  BNZ   3ED0
3EC2:  MOVF   xDE,W
3EC4:  SUBWF  xDC,W
3EC6:  BNZ   3ED0
....................             { 
....................                ind_cal = 0; 
3EC8:  CLRF   xDC
3ECA:  CLRF   xDB
....................                bandera = 1; 
3ECC:  MOVLW  01
3ECE:  MOVWF  xDF
....................             } 
....................          } 
....................             
....................                
....................          
....................          if(np!=0){    
3ED0:  MOVF   54,F
3ED2:  BTFSC  FD8.2
3ED4:  BRA    4128
3ED6:  CLRF   16
3ED8:  BTFSC  FF2.7
3EDA:  BSF    16.7
3EDC:  BCF    FF2.7
....................             if(procesos[colap[0]].estado==1) 
3EDE:  MOVLB  7
3EE0:  CLRF   x39
3EE2:  MOVFF  40,738
3EE6:  CLRF   x3B
3EE8:  MOVLW  17
3EEA:  MOVWF  x3A
3EEC:  MOVLB  0
3EEE:  CALL   00B8
3EF2:  BTFSC  16.7
3EF4:  BSF    FF2.7
3EF6:  MOVFF  02,6E5
3EFA:  MOVFF  01,6E4
3EFE:  MOVLW  08
3F00:  MOVLB  6
3F02:  ADDWF  01,W
3F04:  MOVWF  01
3F06:  MOVLW  00
3F08:  ADDWFC 02,W
3F0A:  MOVWF  03
3F0C:  MOVF   01,W
3F0E:  ADDLW  97
3F10:  MOVWF  FE9
3F12:  MOVLW  00
3F14:  ADDWFC 03,W
3F16:  MOVWF  FEA
3F18:  DECFSZ FEF,W
3F1A:  BRA    3FF6
3F1C:  CLRF   16
3F1E:  BTFSC  FF2.7
3F20:  BSF    16.7
3F22:  BCF    FF2.7
....................             { 
....................                procesos[colap[0]].estado=2; 
3F24:  MOVLB  7
3F26:  CLRF   x39
3F28:  MOVFF  40,738
3F2C:  CLRF   x3B
3F2E:  MOVLW  17
3F30:  MOVWF  x3A
3F32:  MOVLB  0
3F34:  CALL   00B8
3F38:  BTFSC  16.7
3F3A:  BSF    FF2.7
3F3C:  MOVFF  01,6E4
3F40:  MOVLW  08
3F42:  MOVLB  6
3F44:  ADDWF  01,W
3F46:  MOVWF  01
3F48:  MOVLW  00
3F4A:  ADDWFC 02,W
3F4C:  MOVWF  03
3F4E:  MOVF   01,W
3F50:  ADDLW  97
3F52:  MOVWF  FE9
3F54:  MOVLW  00
3F56:  ADDWFC 03,W
3F58:  MOVWF  FEA
3F5A:  MOVLW  02
3F5C:  MOVWF  FEF
3F5E:  CLRF   16
3F60:  BTFSC  FF2.7
3F62:  BSF    16.7
3F64:  BCF    FF2.7
....................                procesos[colap[0]].tiem_eje++; 
3F66:  MOVLB  7
3F68:  CLRF   x39
3F6A:  MOVFF  40,738
3F6E:  CLRF   x3B
3F70:  MOVLW  17
3F72:  MOVWF  x3A
3F74:  MOVLB  0
3F76:  CALL   00B8
3F7A:  BTFSC  16.7
3F7C:  BSF    FF2.7
3F7E:  MOVFF  01,6E4
3F82:  MOVLW  0E
3F84:  MOVLB  6
3F86:  ADDWF  01,W
3F88:  MOVWF  01
3F8A:  MOVLW  00
3F8C:  ADDWFC 02,W
3F8E:  MOVWF  03
3F90:  MOVF   01,W
3F92:  ADDLW  97
3F94:  MOVWF  FE9
3F96:  MOVLW  00
3F98:  ADDWFC 03,W
3F9A:  MOVWF  FEA
3F9C:  MOVLW  01
3F9E:  ADDWF  FEE,F
3FA0:  MOVLW  00
3FA2:  ADDWFC FEE,F
3FA4:  ADDWFC FEE,F
3FA6:  ADDWFC FED,F
....................                iniciar_quantum(); 
3FA8:  MOVLB  0
3FAA:  CALL   0DEC
3FAE:  CLRF   16
3FB0:  BTFSC  FF2.7
3FB2:  BSF    16.7
3FB4:  BCF    FF2.7
....................                goto_address(procesos[colap[0]].dir_ini); 
3FB6:  MOVLB  7
3FB8:  CLRF   x39
3FBA:  MOVFF  40,738
3FBE:  CLRF   x3B
3FC0:  MOVLW  17
3FC2:  MOVWF  x3A
3FC4:  MOVLB  0
3FC6:  CALL   00B8
3FCA:  BTFSC  16.7
3FCC:  BSF    FF2.7
3FCE:  MOVLW  97
3FD0:  MOVLB  6
3FD2:  ADDWF  01,W
3FD4:  MOVWF  FE9
3FD6:  MOVLW  00
3FD8:  ADDWFC 02,W
3FDA:  MOVWF  FEA
3FDC:  MOVFF  FEF,6E6
3FE0:  MOVFF  FEC,6E7
3FE4:  MOVFF  FEC,6E8
3FE8:  MOVFF  FEC,6E9
3FEC:  MOVFF  6E7,FFA
3FF0:  MOVFF  6E6,FE8
3FF4:  MOVWF  FF9
3FF6:  CLRF   16
3FF8:  BTFSC  FF2.7
3FFA:  BSF    16.7
3FFC:  BCF    FF2.7
....................             } 
....................           
....................             if(procesos[colap[0]].estado==2) 
3FFE:  MOVLB  7
4000:  CLRF   x39
4002:  MOVFF  40,738
4006:  CLRF   x3B
4008:  MOVLW  17
400A:  MOVWF  x3A
400C:  MOVLB  0
400E:  CALL   00B8
4012:  BTFSC  16.7
4014:  BSF    FF2.7
4016:  MOVFF  02,6E5
401A:  MOVFF  01,6E4
401E:  MOVLW  08
4020:  MOVLB  6
4022:  ADDWF  01,W
4024:  MOVWF  01
4026:  MOVLW  00
4028:  ADDWFC 02,W
402A:  MOVWF  03
402C:  MOVF   01,W
402E:  ADDLW  97
4030:  MOVWF  FE9
4032:  MOVLW  00
4034:  ADDWFC 03,W
4036:  MOVWF  FEA
4038:  MOVF   FEF,W
403A:  SUBLW  02
403C:  BNZ   4128
403E:  CLRF   16
4040:  BTFSC  FF2.7
4042:  BSF    16.7
4044:  BCF    FF2.7
....................             { 
....................                wreg=procesos[colap[0]].wreg; 
4046:  MOVLB  7
4048:  CLRF   x39
404A:  MOVFF  40,738
404E:  CLRF   x3B
4050:  MOVLW  17
4052:  MOVWF  x3A
4054:  MOVLB  0
4056:  CALL   00B8
405A:  BTFSC  16.7
405C:  BSF    FF2.7
405E:  MOVFF  01,6E4
4062:  MOVLW  09
4064:  MOVLB  6
4066:  ADDWF  01,W
4068:  MOVWF  01
406A:  MOVLW  00
406C:  ADDWFC 02,W
406E:  MOVWF  03
4070:  MOVF   01,W
4072:  ADDLW  97
4074:  MOVWF  FE9
4076:  MOVLW  00
4078:  ADDWFC 03,W
407A:  MOVWF  FEA
407C:  MOVFF  FEF,FE8
4080:  CLRF   16
4082:  BTFSC  FF2.7
4084:  BSF    16.7
4086:  BCF    FF2.7
....................                procesos[colap[0]].tiem_eje++; 
4088:  MOVLB  7
408A:  CLRF   x39
408C:  MOVFF  40,738
4090:  CLRF   x3B
4092:  MOVLW  17
4094:  MOVWF  x3A
4096:  MOVLB  0
4098:  CALL   00B8
409C:  BTFSC  16.7
409E:  BSF    FF2.7
40A0:  MOVFF  01,6E4
40A4:  MOVLW  0E
40A6:  MOVLB  6
40A8:  ADDWF  01,W
40AA:  MOVWF  01
40AC:  MOVLW  00
40AE:  ADDWFC 02,W
40B0:  MOVWF  03
40B2:  MOVF   01,W
40B4:  ADDLW  97
40B6:  MOVWF  FE9
40B8:  MOVLW  00
40BA:  ADDWFC 03,W
40BC:  MOVWF  FEA
40BE:  MOVLW  01
40C0:  ADDWF  FEE,F
40C2:  MOVLW  00
40C4:  ADDWFC FEE,F
40C6:  ADDWFC FEE,F
40C8:  ADDWFC FED,F
....................                iniciar_quantum(); 
40CA:  MOVLB  0
40CC:  CALL   0DEC
40D0:  CLRF   16
40D2:  BTFSC  FF2.7
40D4:  BSF    16.7
40D6:  BCF    FF2.7
....................                goto_address(procesos[colap[0]].dir_cor); 
40D8:  MOVLB  7
40DA:  CLRF   x39
40DC:  MOVFF  40,738
40E0:  CLRF   x3B
40E2:  MOVLW  17
40E4:  MOVWF  x3A
40E6:  MOVLB  0
40E8:  CALL   00B8
40EC:  BTFSC  16.7
40EE:  BSF    FF2.7
40F0:  MOVFF  01,6E4
40F4:  MOVLW  04
40F6:  MOVLB  6
40F8:  ADDWF  01,W
40FA:  MOVWF  01
40FC:  MOVLW  00
40FE:  ADDWFC 02,W
4100:  MOVWF  03
4102:  MOVF   01,W
4104:  ADDLW  97
4106:  MOVWF  FE9
4108:  MOVLW  00
410A:  ADDWFC 03,W
410C:  MOVWF  FEA
410E:  MOVFF  FEF,6E4
4112:  MOVFF  FEC,6E5
4116:  MOVFF  FEC,6E6
411A:  MOVFF  FEC,6E7
411E:  MOVFF  6E5,FFA
4122:  MOVFF  6E4,FE8
4126:  MOVWF  FF9
....................             } 
....................          } 
4128:  MOVLB  0
412A:  GOTO   3004
....................    } 
412E:  RETURN 0
.................... }   
....................  
.................... //================ PROGRAMA PRINCIPAL DE INICIO ================================ 
....................  
.................... void main(void) 
*
0E26:  CLRF   FF8
0E28:  BCF    FD0.7
0E2A:  BSF    07.7
0E2C:  BSF    FB8.3
0E2E:  MOVLW  08
0E30:  MOVWF  FAF
0E32:  MOVLW  02
0E34:  MOVWF  FB0
0E36:  MOVLW  A6
0E38:  MOVWF  FAC
0E3A:  MOVLW  90
0E3C:  MOVWF  FAB
0E3E:  CLRF   17
0E40:  MOVLW  CD
0E42:  MOVWF  3F
0E44:  MOVLW  CC
0E46:  MOVWF  3E
0E48:  MOVLW  4C
0E4A:  MOVWF  3D
0E4C:  MOVLW  79
0E4E:  MOVWF  3C
0E50:  CLRF   54
0E52:  CLRF   x60
0E54:  CLRF   5F
0E56:  CLRF   5E
0E58:  CLRF   5D
0E5A:  MOVLB  6
0E5C:  CLRF   xD6
0E5E:  CLRF   xD8
0E60:  CLRF   xD9
0E62:  CLRF   xDA
0E64:  CLRF   xDC
0E66:  CLRF   xDB
0E68:  CLRF   xDE
0E6A:  CLRF   xDD
0E6C:  CLRF   xDF
0E6E:  BCF    xE0.0
0E70:  BCF    xE0.1
0E72:  MOVF   FC1,W
0E74:  ANDLW  C0
0E76:  IORLW  0F
0E78:  MOVWF  FC1
0E7A:  MOVLW  07
0E7C:  MOVWF  FB4
.................... {   
....................    Port_Init(); 
0E7E:  MOVLB  0
0E80:  BRA    0A7C
....................    Procesos_Init(); 
0E82:  BRA    0AA0
....................    Interrupt_Init(); 
0E84:  BRA    0B44
....................    TMR0_Config(); 
0E86:  BRA    0B4E
....................    //lcd_init(); 
....................    setup_adc_ports(AN0); 
0E88:  MOVF   FC1,W
0E8A:  ANDLW  C0
0E8C:  IORLW  0E
0E8E:  MOVWF  FC1
....................    setup_adc(ADC_CLOCK_DIV_32 ); 
0E90:  MOVF   FC0,W
0E92:  ANDLW  C0
0E94:  IORLW  02
0E96:  MOVWF  FC0
0E98:  BSF    FC0.7
0E9A:  BSF    FC2.0
....................    //lcd_putc("Sistema Iniciado"); 
....................    //lcd_gotoxy(1,2); 
....................    //lcd_putc("=== MT - 325 ==="); 
....................    SO_Init(); 
0E9C:  CALL   3000
.................... } 
.................... //============================================================================== 
0EA0:  SLEEP 
....................  
....................  

Configuration Fuses:
   Word  1: CC3F   PLL12 CPUDIV4 USBDIV HS FCMEN IESO
   Word  2: 1E3E   PUT BROWNOUT BORV21 VREGEN NOWDT WDT32768
   Word  3: 8700   CCP2C1 PBADEN LPT1OSC MCLR
   Word  4: 00A1   STVREN NOLVP ICSP2 NOXINST NODEBUG
   Word  5: C00F   NOPROTECT NOCPB NOCPD
   Word  6: E00F   NOWRT NOWRTC NOWRTB NOWRTD
   Word  7: 400F   NOEBTR NOEBTRB
